
kernel:     file format elf64-littleriscv


Disassembly of section .text:

0000000080000000 <_entry>:
    80000000:	0000b117          	auipc	sp,0xb
    80000004:	7e013103          	ld	sp,2016(sp) # 8000b7e0 <_GLOBAL_OFFSET_TABLE_+0x18>
    80000008:	00001537          	lui	a0,0x1
    8000000c:	f14025f3          	csrr	a1,mhartid
    80000010:	00158593          	addi	a1,a1,1
    80000014:	02b50533          	mul	a0,a0,a1
    80000018:	00a10133          	add	sp,sp,a0
    8000001c:	428060ef          	jal	ra,80006444 <start>

0000000080000020 <spin>:
    80000020:	0000006f          	j	80000020 <spin>
	...

0000000080001000 <_ZN5RiscV16handle_interruptEv>:
.global _ZN5RiscV16handle_interruptEv
.type _ZN5RiscV16handle_interruptEv, @function
_ZN5RiscV16handle_interruptEv:

    addi sp, sp, -256
    80001000:	f0010113          	addi	sp,sp,-256
    .irp index, 0,1,2,3,4,5,6,7,8,9,11,12,13,14,15,16,17,18,19,20,21,22,23,24,25,26,27,28,29,30,31
    sd x\index, \index * 8(sp)
    .endr
    80001004:	00013023          	sd	zero,0(sp)
    80001008:	00113423          	sd	ra,8(sp)
    8000100c:	00213823          	sd	sp,16(sp)
    80001010:	00313c23          	sd	gp,24(sp)
    80001014:	02413023          	sd	tp,32(sp)
    80001018:	02513423          	sd	t0,40(sp)
    8000101c:	02613823          	sd	t1,48(sp)
    80001020:	02713c23          	sd	t2,56(sp)
    80001024:	04813023          	sd	s0,64(sp)
    80001028:	04913423          	sd	s1,72(sp)
    8000102c:	04b13c23          	sd	a1,88(sp)
    80001030:	06c13023          	sd	a2,96(sp)
    80001034:	06d13423          	sd	a3,104(sp)
    80001038:	06e13823          	sd	a4,112(sp)
    8000103c:	06f13c23          	sd	a5,120(sp)
    80001040:	09013023          	sd	a6,128(sp)
    80001044:	09113423          	sd	a7,136(sp)
    80001048:	09213823          	sd	s2,144(sp)
    8000104c:	09313c23          	sd	s3,152(sp)
    80001050:	0b413023          	sd	s4,160(sp)
    80001054:	0b513423          	sd	s5,168(sp)
    80001058:	0b613823          	sd	s6,176(sp)
    8000105c:	0b713c23          	sd	s7,184(sp)
    80001060:	0d813023          	sd	s8,192(sp)
    80001064:	0d913423          	sd	s9,200(sp)
    80001068:	0da13823          	sd	s10,208(sp)
    8000106c:	0db13c23          	sd	s11,216(sp)
    80001070:	0fc13023          	sd	t3,224(sp)
    80001074:	0fd13423          	sd	t4,232(sp)
    80001078:	0fe13823          	sd	t5,240(sp)
    8000107c:	0ff13c23          	sd	t6,248(sp)

    call _ZN5RiscV22handle_supervisor_trapEv
    80001080:	279010ef          	jal	ra,80002af8 <_ZN5RiscV22handle_supervisor_trapEv>

    .irp index, 0,1,2,3,4,5,6,7,8,9,11,12,13,14,15,16,17,18,19,20,21,22,23,24,25,26,27,28,29,30,31
    ld x\index, \index * 8(sp)
    .endr
    80001084:	00013003          	ld	zero,0(sp)
    80001088:	00813083          	ld	ra,8(sp)
    8000108c:	01013103          	ld	sp,16(sp)
    80001090:	01813183          	ld	gp,24(sp)
    80001094:	02013203          	ld	tp,32(sp)
    80001098:	02813283          	ld	t0,40(sp)
    8000109c:	03013303          	ld	t1,48(sp)
    800010a0:	03813383          	ld	t2,56(sp)
    800010a4:	04013403          	ld	s0,64(sp)
    800010a8:	04813483          	ld	s1,72(sp)
    800010ac:	05813583          	ld	a1,88(sp)
    800010b0:	06013603          	ld	a2,96(sp)
    800010b4:	06813683          	ld	a3,104(sp)
    800010b8:	07013703          	ld	a4,112(sp)
    800010bc:	07813783          	ld	a5,120(sp)
    800010c0:	08013803          	ld	a6,128(sp)
    800010c4:	08813883          	ld	a7,136(sp)
    800010c8:	09013903          	ld	s2,144(sp)
    800010cc:	09813983          	ld	s3,152(sp)
    800010d0:	0a013a03          	ld	s4,160(sp)
    800010d4:	0a813a83          	ld	s5,168(sp)
    800010d8:	0b013b03          	ld	s6,176(sp)
    800010dc:	0b813b83          	ld	s7,184(sp)
    800010e0:	0c013c03          	ld	s8,192(sp)
    800010e4:	0c813c83          	ld	s9,200(sp)
    800010e8:	0d013d03          	ld	s10,208(sp)
    800010ec:	0d813d83          	ld	s11,216(sp)
    800010f0:	0e013e03          	ld	t3,224(sp)
    800010f4:	0e813e83          	ld	t4,232(sp)
    800010f8:	0f013f03          	ld	t5,240(sp)
    800010fc:	0f813f83          	ld	t6,248(sp)
    addi sp, sp, 256
    80001100:	10010113          	addi	sp,sp,256

    sret
    80001104:	10200073          	sret

0000000080001108 <_ZN5RiscV14push_registersEv>:

.global _ZN5RiscV14push_registersEv
.type _ZN5RiscV14push_registersEv, @function
_ZN5RiscV14push_registersEv:

    addi sp, sp, -256
    80001108:	f0010113          	addi	sp,sp,-256
    .irp index, 2,3,4,5,6,7,8,9,10,11,12,13,14,15,16,17,18,19,20,21,22,23,24,25,26,27,28,29,30,31
    sd x\index, \index * 8(sp)
    .endr
    8000110c:	00213823          	sd	sp,16(sp)
    80001110:	00313c23          	sd	gp,24(sp)
    80001114:	02413023          	sd	tp,32(sp)
    80001118:	02513423          	sd	t0,40(sp)
    8000111c:	02613823          	sd	t1,48(sp)
    80001120:	02713c23          	sd	t2,56(sp)
    80001124:	04813023          	sd	s0,64(sp)
    80001128:	04913423          	sd	s1,72(sp)
    8000112c:	04a13823          	sd	a0,80(sp)
    80001130:	04b13c23          	sd	a1,88(sp)
    80001134:	06c13023          	sd	a2,96(sp)
    80001138:	06d13423          	sd	a3,104(sp)
    8000113c:	06e13823          	sd	a4,112(sp)
    80001140:	06f13c23          	sd	a5,120(sp)
    80001144:	09013023          	sd	a6,128(sp)
    80001148:	09113423          	sd	a7,136(sp)
    8000114c:	09213823          	sd	s2,144(sp)
    80001150:	09313c23          	sd	s3,152(sp)
    80001154:	0b413023          	sd	s4,160(sp)
    80001158:	0b513423          	sd	s5,168(sp)
    8000115c:	0b613823          	sd	s6,176(sp)
    80001160:	0b713c23          	sd	s7,184(sp)
    80001164:	0d813023          	sd	s8,192(sp)
    80001168:	0d913423          	sd	s9,200(sp)
    8000116c:	0da13823          	sd	s10,208(sp)
    80001170:	0db13c23          	sd	s11,216(sp)
    80001174:	0fc13023          	sd	t3,224(sp)
    80001178:	0fd13423          	sd	t4,232(sp)
    8000117c:	0fe13823          	sd	t5,240(sp)
    80001180:	0ff13c23          	sd	t6,248(sp)

    ret
    80001184:	00008067          	ret

0000000080001188 <_ZN5RiscV13pop_registersEv>:
.type _ZN5RiscV13pop_registersEv, @function
_ZN5RiscV13pop_registersEv:

    .irp index, 2,3,4,5,6,7,8,9,10,11,12,13,14,15,16,17,18,19,20,21,22,23,24,25,26,27,28,29,30,31
    ld x\index, \index * 8(sp)
    .endr
    80001188:	01013103          	ld	sp,16(sp)
    8000118c:	01813183          	ld	gp,24(sp)
    80001190:	02013203          	ld	tp,32(sp)
    80001194:	02813283          	ld	t0,40(sp)
    80001198:	03013303          	ld	t1,48(sp)
    8000119c:	03813383          	ld	t2,56(sp)
    800011a0:	04013403          	ld	s0,64(sp)
    800011a4:	04813483          	ld	s1,72(sp)
    800011a8:	05013503          	ld	a0,80(sp)
    800011ac:	05813583          	ld	a1,88(sp)
    800011b0:	06013603          	ld	a2,96(sp)
    800011b4:	06813683          	ld	a3,104(sp)
    800011b8:	07013703          	ld	a4,112(sp)
    800011bc:	07813783          	ld	a5,120(sp)
    800011c0:	08013803          	ld	a6,128(sp)
    800011c4:	08813883          	ld	a7,136(sp)
    800011c8:	09013903          	ld	s2,144(sp)
    800011cc:	09813983          	ld	s3,152(sp)
    800011d0:	0a013a03          	ld	s4,160(sp)
    800011d4:	0a813a83          	ld	s5,168(sp)
    800011d8:	0b013b03          	ld	s6,176(sp)
    800011dc:	0b813b83          	ld	s7,184(sp)
    800011e0:	0c013c03          	ld	s8,192(sp)
    800011e4:	0c813c83          	ld	s9,200(sp)
    800011e8:	0d013d03          	ld	s10,208(sp)
    800011ec:	0d813d83          	ld	s11,216(sp)
    800011f0:	0e013e03          	ld	t3,224(sp)
    800011f4:	0e813e83          	ld	t4,232(sp)
    800011f8:	0f013f03          	ld	t5,240(sp)
    800011fc:	0f813f83          	ld	t6,248(sp)
    addi sp, sp, 256
    80001200:	10010113          	addi	sp,sp,256

    80001204:	00008067          	ret

0000000080001208 <_ZN3TCB14context_switchEPNS_7ContextES1_>:
.global _ZN3TCB14context_switchEPNS_7ContextES1_
.type _ZN3TCB14context_switchEPNS_7ContextES1_, @function
_ZN3TCB14context_switchEPNS_7ContextES1_:

    #store old -> context
	sd ra, 0 * 8(a0)
    80001208:	00153023          	sd	ra,0(a0) # 1000 <_entry-0x7ffff000>
	sd sp, 1 * 8(a0)
    8000120c:	00253423          	sd	sp,8(a0)

    #load running -> context
	ld ra, 0 * 8(a1)
    80001210:	0005b083          	ld	ra,0(a1)
    ld sp, 1 * 8(a1)
    80001214:	0085b103          	ld	sp,8(a1)

    80001218:	00008067          	ret

000000008000121c <copy_and_swap>:
# a1 holds expected value
# a2 holds desired value
# a0 holds return value, 0 if successful, !0 otherwise
.global copy_and_swap
copy_and_swap:
    lr.w t0, (a0)          # Load original value.
    8000121c:	100522af          	lr.w	t0,(a0)
    bne t0, a1, fail       # Doesn’t match, so fail.
    80001220:	00b29a63          	bne	t0,a1,80001234 <fail>
    sc.w t0, a2, (a0)      # Try to update.
    80001224:	18c522af          	sc.w	t0,a2,(a0)
    bnez t0, copy_and_swap # Retry if store-conditional failed.
    80001228:	fe029ae3          	bnez	t0,8000121c <copy_and_swap>
    li a0, 0               # Set return to success.
    8000122c:	00000513          	li	a0,0
    jr ra                  # Return.
    80001230:	00008067          	ret

0000000080001234 <fail>:
    fail:
    li a0, 1               # Set return to failure.
    80001234:	00100513          	li	a0,1
    80001238:	00008067          	ret

000000008000123c <_Z7syscallmmmmm>:
#include "../h/syscall_c.hpp"

void syscall(uint64 syscall_code, uint64 a1 = 0, uint64 a2 = 0, uint64 a3 = 0, uint64 a4 = 0) {
    8000123c:	ff010113          	addi	sp,sp,-16
    80001240:	00813423          	sd	s0,8(sp)
    80001244:	01010413          	addi	s0,sp,16
    __asm__ volatile("ecall");
    80001248:	00000073          	ecall
}
    8000124c:	00813403          	ld	s0,8(sp)
    80001250:	01010113          	addi	sp,sp,16
    80001254:	00008067          	ret

0000000080001258 <_Z9mem_allocm>:

void* mem_alloc (size_t size) {
    if (size == 0) return nullptr;
    80001258:	04050663          	beqz	a0,800012a4 <_Z9mem_allocm+0x4c>
void* mem_alloc (size_t size) {
    8000125c:	ff010113          	addi	sp,sp,-16
    80001260:	00113423          	sd	ra,8(sp)
    80001264:	00813023          	sd	s0,0(sp)
    80001268:	01010413          	addi	s0,sp,16
    size = MemoryAllocator::get_number_of_blocks(size);
    8000126c:	00001097          	auipc	ra,0x1
    80001270:	640080e7          	jalr	1600(ra) # 800028ac <_ZN15MemoryAllocator20get_number_of_blocksEm>
    80001274:	00050593          	mv	a1,a0
    void volatile *addr;
    syscall(MEM_ALLOC, size);
    80001278:	00000713          	li	a4,0
    8000127c:	00000693          	li	a3,0
    80001280:	00000613          	li	a2,0
    80001284:	00100513          	li	a0,1
    80001288:	00000097          	auipc	ra,0x0
    8000128c:	fb4080e7          	jalr	-76(ra) # 8000123c <_Z7syscallmmmmm>
    __asm__ volatile ("mv %0, a0" : "=r"(addr));
    80001290:	00050513          	mv	a0,a0
    return (void*) addr;
}
    80001294:	00813083          	ld	ra,8(sp)
    80001298:	00013403          	ld	s0,0(sp)
    8000129c:	01010113          	addi	sp,sp,16
    800012a0:	00008067          	ret
    if (size == 0) return nullptr;
    800012a4:	00000513          	li	a0,0
}
    800012a8:	00008067          	ret

00000000800012ac <_Z8mem_freePv>:

int mem_free (void* addr) {
    800012ac:	fe010113          	addi	sp,sp,-32
    800012b0:	00113c23          	sd	ra,24(sp)
    800012b4:	00813823          	sd	s0,16(sp)
    800012b8:	02010413          	addi	s0,sp,32
    800012bc:	00050593          	mv	a1,a0
    int volatile success;
    syscall(MEM_FREE, (uint64) addr);
    800012c0:	00000713          	li	a4,0
    800012c4:	00000693          	li	a3,0
    800012c8:	00000613          	li	a2,0
    800012cc:	00200513          	li	a0,2
    800012d0:	00000097          	auipc	ra,0x0
    800012d4:	f6c080e7          	jalr	-148(ra) # 8000123c <_Z7syscallmmmmm>
    __asm__ volatile ("mv %0, a0" : "=r"(success));
    800012d8:	00050793          	mv	a5,a0
    800012dc:	fef42623          	sw	a5,-20(s0)
    return success;
    800012e0:	fec42503          	lw	a0,-20(s0)
}
    800012e4:	0005051b          	sext.w	a0,a0
    800012e8:	01813083          	ld	ra,24(sp)
    800012ec:	01013403          	ld	s0,16(sp)
    800012f0:	02010113          	addi	sp,sp,32
    800012f4:	00008067          	ret

00000000800012f8 <_Z13thread_createPP3TCBPFvPvES2_>:

int thread_create (thread_t* handle, void(*start_routine)(void*), void* arg) {
    800012f8:	fc010113          	addi	sp,sp,-64
    800012fc:	02113c23          	sd	ra,56(sp)
    80001300:	02813823          	sd	s0,48(sp)
    80001304:	02913423          	sd	s1,40(sp)
    80001308:	03213023          	sd	s2,32(sp)
    8000130c:	01313c23          	sd	s3,24(sp)
    80001310:	04010413          	addi	s0,sp,64
    80001314:	00050913          	mv	s2,a0
    80001318:	00058493          	mv	s1,a1
    8000131c:	00060993          	mv	s3,a2
    void* stack_space = nullptr;
    /// main thread alredy has it's stack
    if (start_routine) stack_space = mem_alloc(DEFAULT_STACK_SIZE);
    80001320:	04058c63          	beqz	a1,80001378 <_Z13thread_createPP3TCBPFvPvES2_+0x80>
    80001324:	00001537          	lui	a0,0x1
    80001328:	00000097          	auipc	ra,0x0
    8000132c:	f30080e7          	jalr	-208(ra) # 80001258 <_Z9mem_allocm>
    80001330:	00050713          	mv	a4,a0
    int volatile status;
    syscall(THREAD_CREATE, (uint64) handle, (uint64) start_routine, (uint64) arg, (uint64) stack_space);
    80001334:	00098693          	mv	a3,s3
    80001338:	00048613          	mv	a2,s1
    8000133c:	00090593          	mv	a1,s2
    80001340:	01100513          	li	a0,17
    80001344:	00000097          	auipc	ra,0x0
    80001348:	ef8080e7          	jalr	-264(ra) # 8000123c <_Z7syscallmmmmm>
    __asm__ volatile("mv %0, a0" : "=r"(status));
    8000134c:	00050793          	mv	a5,a0
    80001350:	fcf42623          	sw	a5,-52(s0)
    return status;
    80001354:	fcc42503          	lw	a0,-52(s0)
}
    80001358:	0005051b          	sext.w	a0,a0
    8000135c:	03813083          	ld	ra,56(sp)
    80001360:	03013403          	ld	s0,48(sp)
    80001364:	02813483          	ld	s1,40(sp)
    80001368:	02013903          	ld	s2,32(sp)
    8000136c:	01813983          	ld	s3,24(sp)
    80001370:	04010113          	addi	sp,sp,64
    80001374:	00008067          	ret
    void* stack_space = nullptr;
    80001378:	00000713          	li	a4,0
    8000137c:	fb9ff06f          	j	80001334 <_Z13thread_createPP3TCBPFvPvES2_+0x3c>

0000000080001380 <_Z11thread_exitv>:

int thread_exit () {
    80001380:	fe010113          	addi	sp,sp,-32
    80001384:	00113c23          	sd	ra,24(sp)
    80001388:	00813823          	sd	s0,16(sp)
    8000138c:	02010413          	addi	s0,sp,32
    int volatile status;
    syscall(THREAD_EXIT);
    80001390:	00000713          	li	a4,0
    80001394:	00000693          	li	a3,0
    80001398:	00000613          	li	a2,0
    8000139c:	00000593          	li	a1,0
    800013a0:	01200513          	li	a0,18
    800013a4:	00000097          	auipc	ra,0x0
    800013a8:	e98080e7          	jalr	-360(ra) # 8000123c <_Z7syscallmmmmm>
    __asm__ volatile("mv %0, a0" : "=r"(status));
    800013ac:	00050793          	mv	a5,a0
    800013b0:	fef42623          	sw	a5,-20(s0)
    return status;
    800013b4:	fec42503          	lw	a0,-20(s0)
}
    800013b8:	0005051b          	sext.w	a0,a0
    800013bc:	01813083          	ld	ra,24(sp)
    800013c0:	01013403          	ld	s0,16(sp)
    800013c4:	02010113          	addi	sp,sp,32
    800013c8:	00008067          	ret

00000000800013cc <_Z15thread_dispatchv>:

void thread_dispatch () {
    800013cc:	ff010113          	addi	sp,sp,-16
    800013d0:	00113423          	sd	ra,8(sp)
    800013d4:	00813023          	sd	s0,0(sp)
    800013d8:	01010413          	addi	s0,sp,16
    syscall(THREAD_DISPATCH);
    800013dc:	00000713          	li	a4,0
    800013e0:	00000693          	li	a3,0
    800013e4:	00000613          	li	a2,0
    800013e8:	00000593          	li	a1,0
    800013ec:	01300513          	li	a0,19
    800013f0:	00000097          	auipc	ra,0x0
    800013f4:	e4c080e7          	jalr	-436(ra) # 8000123c <_Z7syscallmmmmm>
}
    800013f8:	00813083          	ld	ra,8(sp)
    800013fc:	00013403          	ld	s0,0(sp)
    80001400:	01010113          	addi	sp,sp,16
    80001404:	00008067          	ret

0000000080001408 <_Z8sem_openPP3Semj>:

int sem_open (sem_t* handle, unsigned init) { return 0; }
    80001408:	ff010113          	addi	sp,sp,-16
    8000140c:	00813423          	sd	s0,8(sp)
    80001410:	01010413          	addi	s0,sp,16
    80001414:	00000513          	li	a0,0
    80001418:	00813403          	ld	s0,8(sp)
    8000141c:	01010113          	addi	sp,sp,16
    80001420:	00008067          	ret

0000000080001424 <_Z9sem_closeP3Sem>:

int sem_close (sem_t handle) { return 0; }
    80001424:	ff010113          	addi	sp,sp,-16
    80001428:	00813423          	sd	s0,8(sp)
    8000142c:	01010413          	addi	s0,sp,16
    80001430:	00000513          	li	a0,0
    80001434:	00813403          	ld	s0,8(sp)
    80001438:	01010113          	addi	sp,sp,16
    8000143c:	00008067          	ret

0000000080001440 <_Z8sem_waitP3Sem>:

int sem_wait (sem_t id) { return 0; }
    80001440:	ff010113          	addi	sp,sp,-16
    80001444:	00813423          	sd	s0,8(sp)
    80001448:	01010413          	addi	s0,sp,16
    8000144c:	00000513          	li	a0,0
    80001450:	00813403          	ld	s0,8(sp)
    80001454:	01010113          	addi	sp,sp,16
    80001458:	00008067          	ret

000000008000145c <_Z10sem_signalP3Sem>:

int sem_signal (sem_t id) { return 0; }
    8000145c:	ff010113          	addi	sp,sp,-16
    80001460:	00813423          	sd	s0,8(sp)
    80001464:	01010413          	addi	s0,sp,16
    80001468:	00000513          	li	a0,0
    8000146c:	00813403          	ld	s0,8(sp)
    80001470:	01010113          	addi	sp,sp,16
    80001474:	00008067          	ret

0000000080001478 <_Z13sem_timedwaitP3Semm>:

int sem_timedwait(sem_t id, time_t timeout) { return 0; }
    80001478:	ff010113          	addi	sp,sp,-16
    8000147c:	00813423          	sd	s0,8(sp)
    80001480:	01010413          	addi	s0,sp,16
    80001484:	00000513          	li	a0,0
    80001488:	00813403          	ld	s0,8(sp)
    8000148c:	01010113          	addi	sp,sp,16
    80001490:	00008067          	ret

0000000080001494 <_Z11sem_trywaitP3Sem>:

int sem_trywait(sem_t id) { return 0; }
    80001494:	ff010113          	addi	sp,sp,-16
    80001498:	00813423          	sd	s0,8(sp)
    8000149c:	01010413          	addi	s0,sp,16
    800014a0:	00000513          	li	a0,0
    800014a4:	00813403          	ld	s0,8(sp)
    800014a8:	01010113          	addi	sp,sp,16
    800014ac:	00008067          	ret

00000000800014b0 <_Z10time_sleepm>:

int time_sleep (time_t) { return 0; }
    800014b0:	ff010113          	addi	sp,sp,-16
    800014b4:	00813423          	sd	s0,8(sp)
    800014b8:	01010413          	addi	s0,sp,16
    800014bc:	00000513          	li	a0,0
    800014c0:	00813403          	ld	s0,8(sp)
    800014c4:	01010113          	addi	sp,sp,16
    800014c8:	00008067          	ret

00000000800014cc <_Z4getcv>:

char getc () {
    800014cc:	fe010113          	addi	sp,sp,-32
    800014d0:	00113c23          	sd	ra,24(sp)
    800014d4:	00813823          	sd	s0,16(sp)
    800014d8:	02010413          	addi	s0,sp,32
    char volatile c;
    syscall(GETC);
    800014dc:	00000713          	li	a4,0
    800014e0:	00000693          	li	a3,0
    800014e4:	00000613          	li	a2,0
    800014e8:	00000593          	li	a1,0
    800014ec:	04100513          	li	a0,65
    800014f0:	00000097          	auipc	ra,0x0
    800014f4:	d4c080e7          	jalr	-692(ra) # 8000123c <_Z7syscallmmmmm>
    __asm__ volatile("mv %0, a0" : "=r"(c));
    800014f8:	00050793          	mv	a5,a0
    800014fc:	fef407a3          	sb	a5,-17(s0)
    return c;
    80001500:	fef44503          	lbu	a0,-17(s0)
}
    80001504:	0ff57513          	andi	a0,a0,255
    80001508:	01813083          	ld	ra,24(sp)
    8000150c:	01013403          	ld	s0,16(sp)
    80001510:	02010113          	addi	sp,sp,32
    80001514:	00008067          	ret

0000000080001518 <_Z4putcc>:

void putc (char c) {
    80001518:	ff010113          	addi	sp,sp,-16
    8000151c:	00113423          	sd	ra,8(sp)
    80001520:	00813023          	sd	s0,0(sp)
    80001524:	01010413          	addi	s0,sp,16
    80001528:	00050593          	mv	a1,a0
    syscall(PUTC, c);
    8000152c:	00000713          	li	a4,0
    80001530:	00000693          	li	a3,0
    80001534:	00000613          	li	a2,0
    80001538:	04200513          	li	a0,66
    8000153c:	00000097          	auipc	ra,0x0
    80001540:	d00080e7          	jalr	-768(ra) # 8000123c <_Z7syscallmmmmm>
    80001544:	00813083          	ld	ra,8(sp)
    80001548:	00013403          	ld	s0,0(sp)
    8000154c:	01010113          	addi	sp,sp,16
    80001550:	00008067          	ret

0000000080001554 <_ZN3SemD1Ev>:
#include "../h/semaphore.hpp"

Sem::~Sem() {
    80001554:	ff010113          	addi	sp,sp,-16
    80001558:	00113423          	sd	ra,8(sp)
    8000155c:	00813023          	sd	s0,0(sp)
    80001560:	01010413          	addi	s0,sp,16
    80001564:	0000a797          	auipc	a5,0xa
    80001568:	02c78793          	addi	a5,a5,44 # 8000b590 <_ZTV3Sem+0x10>
    8000156c:	00f53023          	sd	a5,0(a0) # 1000 <_entry-0x7ffff000>
    blocked_threads.free();
    80001570:	00850513          	addi	a0,a0,8
    80001574:	00002097          	auipc	ra,0x2
    80001578:	838080e7          	jalr	-1992(ra) # 80002dac <_ZN10ThreadList4freeEv>
}
    8000157c:	00813083          	ld	ra,8(sp)
    80001580:	00013403          	ld	s0,0(sp)
    80001584:	01010113          	addi	sp,sp,16
    80001588:	00008067          	ret

000000008000158c <_ZN3SemD0Ev>:
Sem::~Sem() {
    8000158c:	fe010113          	addi	sp,sp,-32
    80001590:	00113c23          	sd	ra,24(sp)
    80001594:	00813823          	sd	s0,16(sp)
    80001598:	00913423          	sd	s1,8(sp)
    8000159c:	02010413          	addi	s0,sp,32
    800015a0:	00050493          	mv	s1,a0
}
    800015a4:	00000097          	auipc	ra,0x0
    800015a8:	fb0080e7          	jalr	-80(ra) # 80001554 <_ZN3SemD1Ev>
    800015ac:	00048513          	mv	a0,s1
    800015b0:	00001097          	auipc	ra,0x1
    800015b4:	af0080e7          	jalr	-1296(ra) # 800020a0 <_ZdlPv>
    800015b8:	01813083          	ld	ra,24(sp)
    800015bc:	01013403          	ld	s0,16(sp)
    800015c0:	00813483          	ld	s1,8(sp)
    800015c4:	02010113          	addi	sp,sp,32
    800015c8:	00008067          	ret

00000000800015cc <_ZN3Sem5blockEv>:
    if (closed) return -1;
    if (++value <= 0) unblock();
    return 0;
}

void Sem::block() {
    800015cc:	fe010113          	addi	sp,sp,-32
    800015d0:	00113c23          	sd	ra,24(sp)
    800015d4:	00813823          	sd	s0,16(sp)
    800015d8:	00913423          	sd	s1,8(sp)
    800015dc:	01213023          	sd	s2,0(sp)
    800015e0:	02010413          	addi	s0,sp,32
    TCB* old = TCB::running;
    800015e4:	0000a917          	auipc	s2,0xa
    800015e8:	20493903          	ld	s2,516(s2) # 8000b7e8 <_GLOBAL_OFFSET_TABLE_+0x20>
    800015ec:	00093483          	ld	s1,0(s2)
    blocked_threads.push_back(old);
    800015f0:	00048593          	mv	a1,s1
    800015f4:	00850513          	addi	a0,a0,8
    800015f8:	00001097          	auipc	ra,0x1
    800015fc:	674080e7          	jalr	1652(ra) # 80002c6c <_ZN10ThreadList9push_backEP3TCB>
    TCB::running = Scheduler::get();
    80001600:	00001097          	auipc	ra,0x1
    80001604:	32c080e7          	jalr	812(ra) # 8000292c <_ZN9Scheduler3getEv>
    80001608:	00050593          	mv	a1,a0
    8000160c:	00a93023          	sd	a0,0(s2)
    TCB::yield(old, TCB::running);
    80001610:	00048513          	mv	a0,s1
    80001614:	00000097          	auipc	ra,0x0
    80001618:	604080e7          	jalr	1540(ra) # 80001c18 <_ZN3TCB5yieldEPS_S0_>
}
    8000161c:	01813083          	ld	ra,24(sp)
    80001620:	01013403          	ld	s0,16(sp)
    80001624:	00813483          	ld	s1,8(sp)
    80001628:	00013903          	ld	s2,0(sp)
    8000162c:	02010113          	addi	sp,sp,32
    80001630:	00008067          	ret

0000000080001634 <_ZN3Sem4waitEv>:
    if (closed) return -1;
    80001634:	01c54783          	lbu	a5,28(a0)
    80001638:	06079063          	bnez	a5,80001698 <_ZN3Sem4waitEv+0x64>
int Sem::wait() {
    8000163c:	fe010113          	addi	sp,sp,-32
    80001640:	00113c23          	sd	ra,24(sp)
    80001644:	00813823          	sd	s0,16(sp)
    80001648:	00913423          	sd	s1,8(sp)
    8000164c:	02010413          	addi	s0,sp,32
    80001650:	00050493          	mv	s1,a0
    if (--value < 0) {
    80001654:	01852783          	lw	a5,24(a0)
    80001658:	fff7879b          	addiw	a5,a5,-1
    8000165c:	00f52c23          	sw	a5,24(a0)
    80001660:	02079713          	slli	a4,a5,0x20
    80001664:	00074e63          	bltz	a4,80001680 <_ZN3Sem4waitEv+0x4c>
    return 0;
    80001668:	00000513          	li	a0,0
}
    8000166c:	01813083          	ld	ra,24(sp)
    80001670:	01013403          	ld	s0,16(sp)
    80001674:	00813483          	ld	s1,8(sp)
    80001678:	02010113          	addi	sp,sp,32
    8000167c:	00008067          	ret
        block();
    80001680:	00000097          	auipc	ra,0x0
    80001684:	f4c080e7          	jalr	-180(ra) # 800015cc <_ZN3Sem5blockEv>
        if (closed) return -2; /// thread released because Semaphore is closed
    80001688:	01c4c783          	lbu	a5,28(s1)
    8000168c:	00079a63          	bnez	a5,800016a0 <_ZN3Sem4waitEv+0x6c>
    return 0;
    80001690:	00000513          	li	a0,0
    80001694:	fd9ff06f          	j	8000166c <_ZN3Sem4waitEv+0x38>
    if (closed) return -1;
    80001698:	fff00513          	li	a0,-1
}
    8000169c:	00008067          	ret
        if (closed) return -2; /// thread released because Semaphore is closed
    800016a0:	ffe00513          	li	a0,-2
    800016a4:	fc9ff06f          	j	8000166c <_ZN3Sem4waitEv+0x38>

00000000800016a8 <_ZN3Sem7unblockEv>:

void Sem::unblock() {
    800016a8:	ff010113          	addi	sp,sp,-16
    800016ac:	00113423          	sd	ra,8(sp)
    800016b0:	00813023          	sd	s0,0(sp)
    800016b4:	01010413          	addi	s0,sp,16
    TCB* thread = blocked_threads.get_first();
    800016b8:	00850513          	addi	a0,a0,8
    800016bc:	00001097          	auipc	ra,0x1
    800016c0:	55c080e7          	jalr	1372(ra) # 80002c18 <_ZN10ThreadList9get_firstEv>
    Scheduler::put(thread);
    800016c4:	00001097          	auipc	ra,0x1
    800016c8:	208080e7          	jalr	520(ra) # 800028cc <_ZN9Scheduler3putEP3TCB>
}
    800016cc:	00813083          	ld	ra,8(sp)
    800016d0:	00013403          	ld	s0,0(sp)
    800016d4:	01010113          	addi	sp,sp,16
    800016d8:	00008067          	ret

00000000800016dc <_ZN3Sem6signalEv>:
    if (closed) return -1;
    800016dc:	01c54783          	lbu	a5,28(a0)
    800016e0:	04079663          	bnez	a5,8000172c <_ZN3Sem6signalEv+0x50>
    if (++value <= 0) unblock();
    800016e4:	01852783          	lw	a5,24(a0)
    800016e8:	0017879b          	addiw	a5,a5,1
    800016ec:	0007871b          	sext.w	a4,a5
    800016f0:	00f52c23          	sw	a5,24(a0)
    800016f4:	00e05663          	blez	a4,80001700 <_ZN3Sem6signalEv+0x24>
    return 0;
    800016f8:	00000513          	li	a0,0
}
    800016fc:	00008067          	ret
int Sem::signal() {
    80001700:	ff010113          	addi	sp,sp,-16
    80001704:	00113423          	sd	ra,8(sp)
    80001708:	00813023          	sd	s0,0(sp)
    8000170c:	01010413          	addi	s0,sp,16
    if (++value <= 0) unblock();
    80001710:	00000097          	auipc	ra,0x0
    80001714:	f98080e7          	jalr	-104(ra) # 800016a8 <_ZN3Sem7unblockEv>
    return 0;
    80001718:	00000513          	li	a0,0
}
    8000171c:	00813083          	ld	ra,8(sp)
    80001720:	00013403          	ld	s0,0(sp)
    80001724:	01010113          	addi	sp,sp,16
    80001728:	00008067          	ret
    if (closed) return -1;
    8000172c:	fff00513          	li	a0,-1
    80001730:	00008067          	ret

0000000080001734 <_ZN3Sem9timedWaitEm>:

int Sem::timedWait(time_t time) {
    80001734:	ff010113          	addi	sp,sp,-16
    80001738:	00813423          	sd	s0,8(sp)
    8000173c:	01010413          	addi	s0,sp,16
    return 0;
}
    80001740:	00000513          	li	a0,0
    80001744:	00813403          	ld	s0,8(sp)
    80001748:	01010113          	addi	sp,sp,16
    8000174c:	00008067          	ret

0000000080001750 <_ZN3Sem7tryWaitEv>:

int Sem::tryWait() {
    80001750:	ff010113          	addi	sp,sp,-16
    80001754:	00813423          	sd	s0,8(sp)
    80001758:	01010413          	addi	s0,sp,16
    return 0;
}
    8000175c:	00000513          	li	a0,0
    80001760:	00813403          	ld	s0,8(sp)
    80001764:	01010113          	addi	sp,sp,16
    80001768:	00008067          	ret

000000008000176c <_Z7workerAPv>:
    void* address = mem_alloc(50);
    MemoryAllocator::print();
    mem_free(address);
    MemoryAllocator::print();
}
void workerA(void *args) {
    8000176c:	fe010113          	addi	sp,sp,-32
    80001770:	00113c23          	sd	ra,24(sp)
    80001774:	00813823          	sd	s0,16(sp)
    80001778:	00913423          	sd	s1,8(sp)
    8000177c:	02010413          	addi	s0,sp,32
    80001780:	0140006f          	j	80001794 <_Z7workerAPv+0x28>
    while (1) {
        __putc('\n');
        for (int i = 0; i < 10; ++i) __putc('A');
        thread_dispatch();
    80001784:	00000097          	auipc	ra,0x0
    80001788:	c48080e7          	jalr	-952(ra) # 800013cc <_Z15thread_dispatchv>
        thread_exit();
    8000178c:	00000097          	auipc	ra,0x0
    80001790:	bf4080e7          	jalr	-1036(ra) # 80001380 <_Z11thread_exitv>
        __putc('\n');
    80001794:	00a00513          	li	a0,10
    80001798:	00007097          	auipc	ra,0x7
    8000179c:	d74080e7          	jalr	-652(ra) # 8000850c <__putc>
        for (int i = 0; i < 10; ++i) __putc('A');
    800017a0:	00000493          	li	s1,0
    800017a4:	00900793          	li	a5,9
    800017a8:	fc97cee3          	blt	a5,s1,80001784 <_Z7workerAPv+0x18>
    800017ac:	04100513          	li	a0,65
    800017b0:	00007097          	auipc	ra,0x7
    800017b4:	d5c080e7          	jalr	-676(ra) # 8000850c <__putc>
    800017b8:	0014849b          	addiw	s1,s1,1
    800017bc:	fe9ff06f          	j	800017a4 <_Z7workerAPv+0x38>

00000000800017c0 <_Z7workerBPv>:
    }
}
void workerB(void *args) {
    800017c0:	fe010113          	addi	sp,sp,-32
    800017c4:	00113c23          	sd	ra,24(sp)
    800017c8:	00813823          	sd	s0,16(sp)
    800017cc:	00913423          	sd	s1,8(sp)
    800017d0:	02010413          	addi	s0,sp,32
    800017d4:	0140006f          	j	800017e8 <_Z7workerBPv+0x28>
    while (1) {
        __putc('\n');
        for (int i = 0; i < 10; ++i) __putc('B');
        thread_dispatch();
    800017d8:	00000097          	auipc	ra,0x0
    800017dc:	bf4080e7          	jalr	-1036(ra) # 800013cc <_Z15thread_dispatchv>
        thread_exit();
    800017e0:	00000097          	auipc	ra,0x0
    800017e4:	ba0080e7          	jalr	-1120(ra) # 80001380 <_Z11thread_exitv>
        __putc('\n');
    800017e8:	00a00513          	li	a0,10
    800017ec:	00007097          	auipc	ra,0x7
    800017f0:	d20080e7          	jalr	-736(ra) # 8000850c <__putc>
        for (int i = 0; i < 10; ++i) __putc('B');
    800017f4:	00000493          	li	s1,0
    800017f8:	00900793          	li	a5,9
    800017fc:	fc97cee3          	blt	a5,s1,800017d8 <_Z7workerBPv+0x18>
    80001800:	04200513          	li	a0,66
    80001804:	00007097          	auipc	ra,0x7
    80001808:	d08080e7          	jalr	-760(ra) # 8000850c <__putc>
    8000180c:	0014849b          	addiw	s1,s1,1
    80001810:	fe9ff06f          	j	800017f8 <_Z7workerBPv+0x38>

0000000080001814 <printNumber>:
extern "C" void printNumber(uint64 num) {
    80001814:	fd010113          	addi	sp,sp,-48
    80001818:	02113423          	sd	ra,40(sp)
    8000181c:	02813023          	sd	s0,32(sp)
    80001820:	00913c23          	sd	s1,24(sp)
    80001824:	01213823          	sd	s2,16(sp)
    80001828:	01313423          	sd	s3,8(sp)
    8000182c:	03010413          	addi	s0,sp,48
    80001830:	00050913          	mv	s2,a0
    __putc('\n');
    80001834:	00a00513          	li	a0,10
    80001838:	00007097          	auipc	ra,0x7
    8000183c:	cd4080e7          	jalr	-812(ra) # 8000850c <__putc>
    __putc('N');
    80001840:	04e00513          	li	a0,78
    80001844:	00007097          	auipc	ra,0x7
    80001848:	cc8080e7          	jalr	-824(ra) # 8000850c <__putc>
    __putc(':');
    8000184c:	03a00513          	li	a0,58
    80001850:	00007097          	auipc	ra,0x7
    80001854:	cbc080e7          	jalr	-836(ra) # 8000850c <__putc>
    __putc(' ');
    80001858:	02000513          	li	a0,32
    8000185c:	00007097          	auipc	ra,0x7
    80001860:	cb0080e7          	jalr	-848(ra) # 8000850c <__putc>
    if (!num) __putc('0');
    80001864:	00090863          	beqz	s2,80001874 <printNumber+0x60>
    uint64 num2 = 0, zero_count = 0;
    80001868:	00000993          	li	s3,0
    8000186c:	00000493          	li	s1,0
    80001870:	01c0006f          	j	8000188c <printNumber+0x78>
    if (!num) __putc('0');
    80001874:	03000513          	li	a0,48
    80001878:	00007097          	auipc	ra,0x7
    8000187c:	c94080e7          	jalr	-876(ra) # 8000850c <__putc>
    80001880:	fe9ff06f          	j	80001868 <printNumber+0x54>
        num /= 10;
    80001884:	00a00793          	li	a5,10
    80001888:	02f95933          	divu	s2,s2,a5
    while (num) {
    8000188c:	02090463          	beqz	s2,800018b4 <printNumber+0xa0>
        num2 *= 10;
    80001890:	00249793          	slli	a5,s1,0x2
    80001894:	009784b3          	add	s1,a5,s1
    80001898:	00149793          	slli	a5,s1,0x1
        num2 += num % 10;
    8000189c:	00a00493          	li	s1,10
    800018a0:	029974b3          	remu	s1,s2,s1
    800018a4:	00f484b3          	add	s1,s1,a5
        if (!num2) ++zero_count;
    800018a8:	fc049ee3          	bnez	s1,80001884 <printNumber+0x70>
    800018ac:	00198993          	addi	s3,s3,1
    800018b0:	fd5ff06f          	j	80001884 <printNumber+0x70>
    while (num2) {
    800018b4:	02048063          	beqz	s1,800018d4 <printNumber+0xc0>
        __putc(num2 % 10 + '0');
    800018b8:	00a00913          	li	s2,10
    800018bc:	0324f533          	remu	a0,s1,s2
    800018c0:	03050513          	addi	a0,a0,48
    800018c4:	00007097          	auipc	ra,0x7
    800018c8:	c48080e7          	jalr	-952(ra) # 8000850c <__putc>
        num2 /= 10;
    800018cc:	0324d4b3          	divu	s1,s1,s2
    while (num2) {
    800018d0:	fe5ff06f          	j	800018b4 <printNumber+0xa0>
    while (zero_count--) __putc('0');
    800018d4:	fff98493          	addi	s1,s3,-1
    800018d8:	00098c63          	beqz	s3,800018f0 <printNumber+0xdc>
    800018dc:	03000513          	li	a0,48
    800018e0:	00007097          	auipc	ra,0x7
    800018e4:	c2c080e7          	jalr	-980(ra) # 8000850c <__putc>
    800018e8:	00048993          	mv	s3,s1
    800018ec:	fe9ff06f          	j	800018d4 <printNumber+0xc0>
}
    800018f0:	02813083          	ld	ra,40(sp)
    800018f4:	02013403          	ld	s0,32(sp)
    800018f8:	01813483          	ld	s1,24(sp)
    800018fc:	01013903          	ld	s2,16(sp)
    80001900:	00813983          	ld	s3,8(sp)
    80001904:	03010113          	addi	sp,sp,48
    80001908:	00008067          	ret

000000008000190c <_Z19testMemoryAllocatorv>:
void testMemoryAllocator() {
    8000190c:	fe010113          	addi	sp,sp,-32
    80001910:	00113c23          	sd	ra,24(sp)
    80001914:	00813823          	sd	s0,16(sp)
    80001918:	00913423          	sd	s1,8(sp)
    8000191c:	01213023          	sd	s2,0(sp)
    80001920:	02010413          	addi	s0,sp,32
    MemoryAllocator::print();
    80001924:	00001097          	auipc	ra,0x1
    80001928:	ee4080e7          	jalr	-284(ra) # 80002808 <_ZN15MemoryAllocator5printEv>
    void *address = MemoryAllocator::mem_alloc(1);
    8000192c:	00100513          	li	a0,1
    80001930:	00001097          	auipc	ra,0x1
    80001934:	b80080e7          	jalr	-1152(ra) # 800024b0 <_ZN15MemoryAllocator9mem_allocEm>
    80001938:	00050493          	mv	s1,a0
    MemoryAllocator::print();
    8000193c:	00001097          	auipc	ra,0x1
    80001940:	ecc080e7          	jalr	-308(ra) # 80002808 <_ZN15MemoryAllocator5printEv>
    int s1 = MemoryAllocator::mem_free(address);
    80001944:	00048513          	mv	a0,s1
    80001948:	00001097          	auipc	ra,0x1
    8000194c:	d54080e7          	jalr	-684(ra) # 8000269c <_ZN15MemoryAllocator8mem_freeEPv>
    80001950:	00050913          	mv	s2,a0
    MemoryAllocator::print();
    80001954:	00001097          	auipc	ra,0x1
    80001958:	eb4080e7          	jalr	-332(ra) # 80002808 <_ZN15MemoryAllocator5printEv>
    int s2 = MemoryAllocator::mem_free(address);
    8000195c:	00048513          	mv	a0,s1
    80001960:	00001097          	auipc	ra,0x1
    80001964:	d3c080e7          	jalr	-708(ra) # 8000269c <_ZN15MemoryAllocator8mem_freeEPv>
    80001968:	00050493          	mv	s1,a0
    MemoryAllocator::print();
    8000196c:	00001097          	auipc	ra,0x1
    80001970:	e9c080e7          	jalr	-356(ra) # 80002808 <_ZN15MemoryAllocator5printEv>
    __putc('\n');
    80001974:	00a00513          	li	a0,10
    80001978:	00007097          	auipc	ra,0x7
    8000197c:	b94080e7          	jalr	-1132(ra) # 8000850c <__putc>
    if (s1 == 0) __putc('G'); /// G means Good (passed)
    80001980:	02090263          	beqz	s2,800019a4 <_Z19testMemoryAllocatorv+0x98>
    if (s2 == -3) __putc('G'); /// same
    80001984:	ffd00793          	li	a5,-3
    80001988:	02f48663          	beq	s1,a5,800019b4 <_Z19testMemoryAllocatorv+0xa8>
}
    8000198c:	01813083          	ld	ra,24(sp)
    80001990:	01013403          	ld	s0,16(sp)
    80001994:	00813483          	ld	s1,8(sp)
    80001998:	00013903          	ld	s2,0(sp)
    8000199c:	02010113          	addi	sp,sp,32
    800019a0:	00008067          	ret
    if (s1 == 0) __putc('G'); /// G means Good (passed)
    800019a4:	04700513          	li	a0,71
    800019a8:	00007097          	auipc	ra,0x7
    800019ac:	b64080e7          	jalr	-1180(ra) # 8000850c <__putc>
    800019b0:	fd5ff06f          	j	80001984 <_Z19testMemoryAllocatorv+0x78>
    if (s2 == -3) __putc('G'); /// same
    800019b4:	04700513          	li	a0,71
    800019b8:	00007097          	auipc	ra,0x7
    800019bc:	b54080e7          	jalr	-1196(ra) # 8000850c <__putc>
}
    800019c0:	fcdff06f          	j	8000198c <_Z19testMemoryAllocatorv+0x80>

00000000800019c4 <_Z11testMemoryCv>:
void testMemoryC() {
    800019c4:	fe010113          	addi	sp,sp,-32
    800019c8:	00113c23          	sd	ra,24(sp)
    800019cc:	00813823          	sd	s0,16(sp)
    800019d0:	00913423          	sd	s1,8(sp)
    800019d4:	02010413          	addi	s0,sp,32
    MemoryAllocator::print();
    800019d8:	00001097          	auipc	ra,0x1
    800019dc:	e30080e7          	jalr	-464(ra) # 80002808 <_ZN15MemoryAllocator5printEv>
    void* address = mem_alloc(50);
    800019e0:	03200513          	li	a0,50
    800019e4:	00000097          	auipc	ra,0x0
    800019e8:	874080e7          	jalr	-1932(ra) # 80001258 <_Z9mem_allocm>
    800019ec:	00050493          	mv	s1,a0
    MemoryAllocator::print();
    800019f0:	00001097          	auipc	ra,0x1
    800019f4:	e18080e7          	jalr	-488(ra) # 80002808 <_ZN15MemoryAllocator5printEv>
    mem_free(address);
    800019f8:	00048513          	mv	a0,s1
    800019fc:	00000097          	auipc	ra,0x0
    80001a00:	8b0080e7          	jalr	-1872(ra) # 800012ac <_Z8mem_freePv>
    MemoryAllocator::print();
    80001a04:	00001097          	auipc	ra,0x1
    80001a08:	e04080e7          	jalr	-508(ra) # 80002808 <_ZN15MemoryAllocator5printEv>
}
    80001a0c:	01813083          	ld	ra,24(sp)
    80001a10:	01013403          	ld	s0,16(sp)
    80001a14:	00813483          	ld	s1,8(sp)
    80001a18:	02010113          	addi	sp,sp,32
    80001a1c:	00008067          	ret

0000000080001a20 <_Z11testThreadsv>:
    }
}
void testThreads() {
    80001a20:	fe010113          	addi	sp,sp,-32
    80001a24:	00113c23          	sd	ra,24(sp)
    80001a28:	00813823          	sd	s0,16(sp)
    80001a2c:	00913423          	sd	s1,8(sp)
    80001a30:	02010413          	addi	s0,sp,32
    static thread_t threads[3];

    thread_create(&threads[0], nullptr, nullptr);
    80001a34:	0000a497          	auipc	s1,0xa
    80001a38:	e0c48493          	addi	s1,s1,-500 # 8000b840 <_ZZ11testThreadsvE7threads>
    80001a3c:	00000613          	li	a2,0
    80001a40:	00000593          	li	a1,0
    80001a44:	00048513          	mv	a0,s1
    80001a48:	00000097          	auipc	ra,0x0
    80001a4c:	8b0080e7          	jalr	-1872(ra) # 800012f8 <_Z13thread_createPP3TCBPFvPvES2_>
    TCB::running = threads[0];
    80001a50:	0004b703          	ld	a4,0(s1)
    80001a54:	0000a797          	auipc	a5,0xa
    80001a58:	d947b783          	ld	a5,-620(a5) # 8000b7e8 <_GLOBAL_OFFSET_TABLE_+0x20>
    80001a5c:	00e7b023          	sd	a4,0(a5)

    thread_create(&threads[1], workerA, nullptr);
    80001a60:	00000613          	li	a2,0
    80001a64:	00000597          	auipc	a1,0x0
    80001a68:	d0858593          	addi	a1,a1,-760 # 8000176c <_Z7workerAPv>
    80001a6c:	0000a517          	auipc	a0,0xa
    80001a70:	ddc50513          	addi	a0,a0,-548 # 8000b848 <_ZZ11testThreadsvE7threads+0x8>
    80001a74:	00000097          	auipc	ra,0x0
    80001a78:	884080e7          	jalr	-1916(ra) # 800012f8 <_Z13thread_createPP3TCBPFvPvES2_>
    thread_create(&threads[2], workerB, nullptr);
    80001a7c:	00000613          	li	a2,0
    80001a80:	00000597          	auipc	a1,0x0
    80001a84:	d4058593          	addi	a1,a1,-704 # 800017c0 <_Z7workerBPv>
    80001a88:	0000a517          	auipc	a0,0xa
    80001a8c:	dc850513          	addi	a0,a0,-568 # 8000b850 <_ZZ11testThreadsvE7threads+0x10>
    80001a90:	00000097          	auipc	ra,0x0
    80001a94:	868080e7          	jalr	-1944(ra) # 800012f8 <_Z13thread_createPP3TCBPFvPvES2_>
    80001a98:	00c0006f          	j	80001aa4 <_Z11testThreadsv+0x84>

    while (!threads[1] -> is_finished() || !threads[2] -> is_finished()) thread_dispatch();
    80001a9c:	00000097          	auipc	ra,0x0
    80001aa0:	930080e7          	jalr	-1744(ra) # 800013cc <_Z15thread_dispatchv>
    80001aa4:	0000a517          	auipc	a0,0xa
    80001aa8:	da453503          	ld	a0,-604(a0) # 8000b848 <_ZZ11testThreadsvE7threads+0x8>
    80001aac:	00000097          	auipc	ra,0x0
    80001ab0:	510080e7          	jalr	1296(ra) # 80001fbc <_ZNK3TCB11is_finishedEv>
    80001ab4:	fe0504e3          	beqz	a0,80001a9c <_Z11testThreadsv+0x7c>
    80001ab8:	0000a517          	auipc	a0,0xa
    80001abc:	d9853503          	ld	a0,-616(a0) # 8000b850 <_ZZ11testThreadsvE7threads+0x10>
    80001ac0:	00000097          	auipc	ra,0x0
    80001ac4:	4fc080e7          	jalr	1276(ra) # 80001fbc <_ZNK3TCB11is_finishedEv>
    80001ac8:	fc050ae3          	beqz	a0,80001a9c <_Z11testThreadsv+0x7c>
}
    80001acc:	01813083          	ld	ra,24(sp)
    80001ad0:	01013403          	ld	s0,16(sp)
    80001ad4:	00813483          	ld	s1,8(sp)
    80001ad8:	02010113          	addi	sp,sp,32
    80001adc:	00008067          	ret

0000000080001ae0 <_Z15userMainWrapperPv>:
void userMain();
void userMainWrapper(void *args) {
    80001ae0:	ff010113          	addi	sp,sp,-16
    80001ae4:	00113423          	sd	ra,8(sp)
    80001ae8:	00813023          	sd	s0,0(sp)
    80001aec:	01010413          	addi	s0,sp,16
    userMain();
    80001af0:	00004097          	auipc	ra,0x4
    80001af4:	e48080e7          	jalr	-440(ra) # 80005938 <_Z8userMainv>
}
    80001af8:	00813083          	ld	ra,8(sp)
    80001afc:	00013403          	ld	s0,0(sp)
    80001b00:	01010113          	addi	sp,sp,16
    80001b04:	00008067          	ret

0000000080001b08 <_Z10initializev>:
void initialize() {
    80001b08:	ff010113          	addi	sp,sp,-16
    80001b0c:	00113423          	sd	ra,8(sp)
    80001b10:	00813023          	sd	s0,0(sp)
    80001b14:	01010413          	addi	s0,sp,16
    /// Set interrupt routine handler
    RiscV::write_stvec((uint64) &RiscV::handle_interrupt);
    80001b18:	0000a797          	auipc	a5,0xa
    80001b1c:	cc07b783          	ld	a5,-832(a5) # 8000b7d8 <_GLOBAL_OFFSET_TABLE_+0x10>
    __asm__ volatile ("csrr %0, stvec" : "=r"(stvec));
    return stvec;
}

inline void RiscV::write_stvec(uint64 val) {
    __asm__ volatile ("csrw stvec, %0" : : "r"(val));
    80001b20:	10579073          	csrw	stvec,a5
    /// Enable software interrupts
//    RiscV::ms_sstatus(RiscV::SSTATUS_SIE);
    /// Initialize Memory Allocator
    MemoryAllocator::initialize();
    80001b24:	00001097          	auipc	ra,0x1
    80001b28:	aa8080e7          	jalr	-1368(ra) # 800025cc <_ZN15MemoryAllocator10initializeEv>
}
    80001b2c:	00813083          	ld	ra,8(sp)
    80001b30:	00013403          	ld	s0,0(sp)
    80001b34:	01010113          	addi	sp,sp,16
    80001b38:	00008067          	ret

0000000080001b3c <_Z4testv>:
void test() {
    80001b3c:	ff010113          	addi	sp,sp,-16
    80001b40:	00113423          	sd	ra,8(sp)
    80001b44:	00813023          	sd	s0,0(sp)
    80001b48:	01010413          	addi	s0,sp,16
    /// Test Memory Allocation
//    testMemoryAllocator();
//    testMemoryC();
    /// Test Threads
    testThreads();
    80001b4c:	00000097          	auipc	ra,0x0
    80001b50:	ed4080e7          	jalr	-300(ra) # 80001a20 <_Z11testThreadsv>
    /// Test Everything
//    static thread_t umain;
//    thread_create(&umain, userMainWrapper, nullptr);
//    while (!umain -> is_finished()) thread_dispatch();
}
    80001b54:	00813083          	ld	ra,8(sp)
    80001b58:	00013403          	ld	s0,0(sp)
    80001b5c:	01010113          	addi	sp,sp,16
    80001b60:	00008067          	ret

0000000080001b64 <main>:


int main() {
    80001b64:	ff010113          	addi	sp,sp,-16
    80001b68:	00113423          	sd	ra,8(sp)
    80001b6c:	00813023          	sd	s0,0(sp)
    80001b70:	01010413          	addi	s0,sp,16
    initialize();
    80001b74:	00000097          	auipc	ra,0x0
    80001b78:	f94080e7          	jalr	-108(ra) # 80001b08 <_Z10initializev>
    test();
    80001b7c:	00000097          	auipc	ra,0x0
    80001b80:	fc0080e7          	jalr	-64(ra) # 80001b3c <_Z4testv>
    __putc('\n');
    80001b84:	00a00513          	li	a0,10
    80001b88:	00007097          	auipc	ra,0x7
    80001b8c:	984080e7          	jalr	-1660(ra) # 8000850c <__putc>
    return 0;
    80001b90:	00000513          	li	a0,0
    80001b94:	00813083          	ld	ra,8(sp)
    80001b98:	00013403          	ld	s0,0(sp)
    80001b9c:	01010113          	addi	sp,sp,16
    80001ba0:	00008067          	ret

0000000080001ba4 <_ZN3TCBC1EPFvPvES0_S0_NS_7ContextE>:
    };
    *handle = new TCB(start_routine, arg, stack_begin_address, context);
    return 0;
}

TCB::TCB(void (*function_body)(void *), void *arg, void *stack, Context context) : context(context) {
    80001ba4:	00e53423          	sd	a4,8(a0)
    80001ba8:	00f53823          	sd	a5,16(a0)
    id = cnt++;
    80001bac:	0000a717          	auipc	a4,0xa
    80001bb0:	cac70713          	addi	a4,a4,-852 # 8000b858 <_ZN3TCB3cntE>
    80001bb4:	00072783          	lw	a5,0(a4)
    80001bb8:	0017881b          	addiw	a6,a5,1
    80001bbc:	01072023          	sw	a6,0(a4)
    80001bc0:	00f52023          	sw	a5,0(a0)
    status = RUNNABLE;
    80001bc4:	00052c23          	sw	zero,24(a0)
    this -> function_body = function_body;
    80001bc8:	02b53023          	sd	a1,32(a0)
    this -> arg = arg;
    80001bcc:	02c53423          	sd	a2,40(a0)
    this -> stack = stack;
    80001bd0:	02d53823          	sd	a3,48(a0)
    time_slice = DEFAULT_TIME_SLICE;
    80001bd4:	00200793          	li	a5,2
    80001bd8:	02f53c23          	sd	a5,56(a0)
    time_to_sleep = 0;
    80001bdc:	04053423          	sd	zero,72(a0)
    next_ready = nullptr;
    80001be0:	04053023          	sd	zero,64(a0)
    next_sleeping = nullptr;
    80001be4:	04053823          	sd	zero,80(a0)
    if (function_body) Scheduler::put(this);
    80001be8:	02058663          	beqz	a1,80001c14 <_ZN3TCBC1EPFvPvES0_S0_NS_7ContextE+0x70>
TCB::TCB(void (*function_body)(void *), void *arg, void *stack, Context context) : context(context) {
    80001bec:	fe010113          	addi	sp,sp,-32
    80001bf0:	00113c23          	sd	ra,24(sp)
    80001bf4:	00813823          	sd	s0,16(sp)
    80001bf8:	02010413          	addi	s0,sp,32
    if (function_body) Scheduler::put(this);
    80001bfc:	00001097          	auipc	ra,0x1
    80001c00:	cd0080e7          	jalr	-816(ra) # 800028cc <_ZN9Scheduler3putEP3TCB>
}
    80001c04:	01813083          	ld	ra,24(sp)
    80001c08:	01013403          	ld	s0,16(sp)
    80001c0c:	02010113          	addi	sp,sp,32
    80001c10:	00008067          	ret
    80001c14:	00008067          	ret

0000000080001c18 <_ZN3TCB5yieldEPS_S0_>:
//    RiscV::popSppSpie();
    if (running -> function_body) running -> function_body(running -> arg);
    thread_exit();
}

void TCB::yield(TCB *old_running, TCB *new_running) {
    80001c18:	fe010113          	addi	sp,sp,-32
    80001c1c:	00113c23          	sd	ra,24(sp)
    80001c20:	00813823          	sd	s0,16(sp)
    80001c24:	00913423          	sd	s1,8(sp)
    80001c28:	01213023          	sd	s2,0(sp)
    80001c2c:	02010413          	addi	s0,sp,32
    80001c30:	00050493          	mv	s1,a0
    80001c34:	00058913          	mv	s2,a1
    RiscV::push_registers();
    80001c38:	fffff097          	auipc	ra,0xfffff
    80001c3c:	4d0080e7          	jalr	1232(ra) # 80001108 <_ZN5RiscV14push_registersEv>
    if (old_running != new_running) context_switch(&old_running -> context, &new_running -> context);
    80001c40:	01248a63          	beq	s1,s2,80001c54 <_ZN3TCB5yieldEPS_S0_+0x3c>
    80001c44:	00890593          	addi	a1,s2,8
    80001c48:	00848513          	addi	a0,s1,8
    80001c4c:	fffff097          	auipc	ra,0xfffff
    80001c50:	5bc080e7          	jalr	1468(ra) # 80001208 <_ZN3TCB14context_switchEPNS_7ContextES1_>
    RiscV::pop_registers();
    80001c54:	fffff097          	auipc	ra,0xfffff
    80001c58:	534080e7          	jalr	1332(ra) # 80001188 <_ZN5RiscV13pop_registersEv>
}
    80001c5c:	01813083          	ld	ra,24(sp)
    80001c60:	01013403          	ld	s0,16(sp)
    80001c64:	00813483          	ld	s1,8(sp)
    80001c68:	00013903          	ld	s2,0(sp)
    80001c6c:	02010113          	addi	sp,sp,32
    80001c70:	00008067          	ret

0000000080001c74 <_ZN3TCB8dispatchEv>:

void TCB::dispatch() {
    80001c74:	fe010113          	addi	sp,sp,-32
    80001c78:	00113c23          	sd	ra,24(sp)
    80001c7c:	00813823          	sd	s0,16(sp)
    80001c80:	00913423          	sd	s1,8(sp)
    80001c84:	02010413          	addi	s0,sp,32
    TCB* old = running;
    80001c88:	0000a497          	auipc	s1,0xa
    80001c8c:	bd84b483          	ld	s1,-1064(s1) # 8000b860 <_ZN3TCB7runningE>
    if (old -> status == RUNNABLE) Scheduler::put(old);
    80001c90:	0184a783          	lw	a5,24(s1)
    80001c94:	02078e63          	beqz	a5,80001cd0 <_ZN3TCB8dispatchEv+0x5c>
    running = Scheduler::get();
    80001c98:	00001097          	auipc	ra,0x1
    80001c9c:	c94080e7          	jalr	-876(ra) # 8000292c <_ZN9Scheduler3getEv>
    80001ca0:	00050593          	mv	a1,a0
    80001ca4:	0000a797          	auipc	a5,0xa
    80001ca8:	baa7be23          	sd	a0,-1092(a5) # 8000b860 <_ZN3TCB7runningE>
    if (old != running) yield(old, running);
    80001cac:	00a48863          	beq	s1,a0,80001cbc <_ZN3TCB8dispatchEv+0x48>
    80001cb0:	00048513          	mv	a0,s1
    80001cb4:	00000097          	auipc	ra,0x0
    80001cb8:	f64080e7          	jalr	-156(ra) # 80001c18 <_ZN3TCB5yieldEPS_S0_>
}
    80001cbc:	01813083          	ld	ra,24(sp)
    80001cc0:	01013403          	ld	s0,16(sp)
    80001cc4:	00813483          	ld	s1,8(sp)
    80001cc8:	02010113          	addi	sp,sp,32
    80001ccc:	00008067          	ret
    if (old -> status == RUNNABLE) Scheduler::put(old);
    80001cd0:	00048513          	mv	a0,s1
    80001cd4:	00001097          	auipc	ra,0x1
    80001cd8:	bf8080e7          	jalr	-1032(ra) # 800028cc <_ZN9Scheduler3putEP3TCB>
    80001cdc:	fbdff06f          	j	80001c98 <_ZN3TCB8dispatchEv+0x24>

0000000080001ce0 <_ZNK3TCB14get_next_readyEv>:

TCB *TCB::get_next_ready() const {
    80001ce0:	ff010113          	addi	sp,sp,-16
    80001ce4:	00813423          	sd	s0,8(sp)
    80001ce8:	01010413          	addi	s0,sp,16
    return next_ready;
}
    80001cec:	04053503          	ld	a0,64(a0)
    80001cf0:	00813403          	ld	s0,8(sp)
    80001cf4:	01010113          	addi	sp,sp,16
    80001cf8:	00008067          	ret

0000000080001cfc <_ZN3TCB14set_next_readyEPS_>:

void TCB::set_next_ready(TCB *next) {
    80001cfc:	ff010113          	addi	sp,sp,-16
    80001d00:	00813423          	sd	s0,8(sp)
    80001d04:	01010413          	addi	s0,sp,16
    next_ready = next;
    80001d08:	04b53023          	sd	a1,64(a0)
}
    80001d0c:	00813403          	ld	s0,8(sp)
    80001d10:	01010113          	addi	sp,sp,16
    80001d14:	00008067          	ret

0000000080001d18 <_ZN3TCB17set_next_sleepingEPS_>:

void TCB::set_next_sleeping(TCB *next) {
    80001d18:	ff010113          	addi	sp,sp,-16
    80001d1c:	00813423          	sd	s0,8(sp)
    80001d20:	01010413          	addi	s0,sp,16
    next_sleeping = next;
    80001d24:	04b53823          	sd	a1,80(a0)
}
    80001d28:	00813403          	ld	s0,8(sp)
    80001d2c:	01010113          	addi	sp,sp,16
    80001d30:	00008067          	ret

0000000080001d34 <_ZNK3TCB17get_next_sleepingEv>:

TCB* TCB::get_next_sleeping() const {
    80001d34:	ff010113          	addi	sp,sp,-16
    80001d38:	00813423          	sd	s0,8(sp)
    80001d3c:	01010413          	addi	s0,sp,16
    return next_sleeping;
}
    80001d40:	05053503          	ld	a0,80(a0)
    80001d44:	00813403          	ld	s0,8(sp)
    80001d48:	01010113          	addi	sp,sp,16
    80001d4c:	00008067          	ret

0000000080001d50 <_ZN3TCB17set_time_to_sleepEm>:

void TCB::set_time_to_sleep(time_t time) {
    80001d50:	ff010113          	addi	sp,sp,-16
    80001d54:	00813423          	sd	s0,8(sp)
    80001d58:	01010413          	addi	s0,sp,16
    time_to_sleep = time;
    80001d5c:	04b53423          	sd	a1,72(a0)
}
    80001d60:	00813403          	ld	s0,8(sp)
    80001d64:	01010113          	addi	sp,sp,16
    80001d68:	00008067          	ret

0000000080001d6c <_ZNK3TCB17get_time_to_sleepEv>:

time_t TCB::get_time_to_sleep() const {
    80001d6c:	ff010113          	addi	sp,sp,-16
    80001d70:	00813423          	sd	s0,8(sp)
    80001d74:	01010413          	addi	s0,sp,16
    return time_to_sleep;
}
    80001d78:	04853503          	ld	a0,72(a0)
    80001d7c:	00813403          	ld	s0,8(sp)
    80001d80:	01010113          	addi	sp,sp,16
    80001d84:	00008067          	ret

0000000080001d88 <_ZN3TCB10set_statusENS_6StatusE>:

void TCB::set_status(TCB::Status stat) {
    80001d88:	ff010113          	addi	sp,sp,-16
    80001d8c:	00813423          	sd	s0,8(sp)
    80001d90:	01010413          	addi	s0,sp,16
    this -> status = stat;
    80001d94:	00b52c23          	sw	a1,24(a0)
}
    80001d98:	00813403          	ld	s0,8(sp)
    80001d9c:	01010113          	addi	sp,sp,16
    80001da0:	00008067          	ret

0000000080001da4 <_ZN3TCB11thread_exitEv>:
void TCB::thread_exit() {
    80001da4:	ff010113          	addi	sp,sp,-16
    80001da8:	00113423          	sd	ra,8(sp)
    80001dac:	00813023          	sd	s0,0(sp)
    80001db0:	01010413          	addi	s0,sp,16
    running -> set_status(Status::FINISHED);
    80001db4:	00400593          	li	a1,4
    80001db8:	0000a517          	auipc	a0,0xa
    80001dbc:	aa853503          	ld	a0,-1368(a0) # 8000b860 <_ZN3TCB7runningE>
    80001dc0:	00000097          	auipc	ra,0x0
    80001dc4:	fc8080e7          	jalr	-56(ra) # 80001d88 <_ZN3TCB10set_statusENS_6StatusE>
    dispatch();
    80001dc8:	00000097          	auipc	ra,0x0
    80001dcc:	eac080e7          	jalr	-340(ra) # 80001c74 <_ZN3TCB8dispatchEv>
}
    80001dd0:	00813083          	ld	ra,8(sp)
    80001dd4:	00013403          	ld	s0,0(sp)
    80001dd8:	01010113          	addi	sp,sp,16
    80001ddc:	00008067          	ret

0000000080001de0 <_ZN3TCB16wrapper_functionEv>:
void TCB::wrapper_function() {
    80001de0:	ff010113          	addi	sp,sp,-16
    80001de4:	00113423          	sd	ra,8(sp)
    80001de8:	00813023          	sd	s0,0(sp)
    80001dec:	01010413          	addi	s0,sp,16
    if (running -> function_body) running -> function_body(running -> arg);
    80001df0:	0000a717          	auipc	a4,0xa
    80001df4:	a7073703          	ld	a4,-1424(a4) # 8000b860 <_ZN3TCB7runningE>
    80001df8:	02073783          	ld	a5,32(a4)
    80001dfc:	00078663          	beqz	a5,80001e08 <_ZN3TCB16wrapper_functionEv+0x28>
    80001e00:	02873503          	ld	a0,40(a4)
    80001e04:	000780e7          	jalr	a5
    thread_exit();
    80001e08:	00000097          	auipc	ra,0x0
    80001e0c:	f9c080e7          	jalr	-100(ra) # 80001da4 <_ZN3TCB11thread_exitEv>
}
    80001e10:	00813083          	ld	ra,8(sp)
    80001e14:	00013403          	ld	s0,0(sp)
    80001e18:	01010113          	addi	sp,sp,16
    80001e1c:	00008067          	ret

0000000080001e20 <_ZN3TCB5startEv>:

void TCB::start() {
    80001e20:	fe010113          	addi	sp,sp,-32
    80001e24:	00113c23          	sd	ra,24(sp)
    80001e28:	00813823          	sd	s0,16(sp)
    80001e2c:	00913423          	sd	s1,8(sp)
    80001e30:	02010413          	addi	s0,sp,32
    80001e34:	00050493          	mv	s1,a0
    Scheduler::put(this);
    80001e38:	00001097          	auipc	ra,0x1
    80001e3c:	a94080e7          	jalr	-1388(ra) # 800028cc <_ZN9Scheduler3putEP3TCB>
    if (!running) running = this;
    80001e40:	0000a797          	auipc	a5,0xa
    80001e44:	a207b783          	ld	a5,-1504(a5) # 8000b860 <_ZN3TCB7runningE>
    80001e48:	00078c63          	beqz	a5,80001e60 <_ZN3TCB5startEv+0x40>
}
    80001e4c:	01813083          	ld	ra,24(sp)
    80001e50:	01013403          	ld	s0,16(sp)
    80001e54:	00813483          	ld	s1,8(sp)
    80001e58:	02010113          	addi	sp,sp,32
    80001e5c:	00008067          	ret
    if (!running) running = this;
    80001e60:	0000a797          	auipc	a5,0xa
    80001e64:	a097b023          	sd	s1,-1536(a5) # 8000b860 <_ZN3TCB7runningE>
}
    80001e68:	fe5ff06f          	j	80001e4c <_ZN3TCB5startEv+0x2c>

0000000080001e6c <_ZN3TCBnwEm>:

void *TCB::operator new(size_t size) {
    80001e6c:	ff010113          	addi	sp,sp,-16
    80001e70:	00113423          	sd	ra,8(sp)
    80001e74:	00813023          	sd	s0,0(sp)
    80001e78:	01010413          	addi	s0,sp,16
    return MemoryAllocator::mem_alloc(MemoryAllocator::get_number_of_blocks(size));
    80001e7c:	00001097          	auipc	ra,0x1
    80001e80:	a30080e7          	jalr	-1488(ra) # 800028ac <_ZN15MemoryAllocator20get_number_of_blocksEm>
    80001e84:	00000097          	auipc	ra,0x0
    80001e88:	62c080e7          	jalr	1580(ra) # 800024b0 <_ZN15MemoryAllocator9mem_allocEm>
}
    80001e8c:	00813083          	ld	ra,8(sp)
    80001e90:	00013403          	ld	s0,0(sp)
    80001e94:	01010113          	addi	sp,sp,16
    80001e98:	00008067          	ret

0000000080001e9c <_ZN3TCBdlEPv>:

void TCB::operator delete(void *addr) {
    80001e9c:	ff010113          	addi	sp,sp,-16
    80001ea0:	00113423          	sd	ra,8(sp)
    80001ea4:	00813023          	sd	s0,0(sp)
    80001ea8:	01010413          	addi	s0,sp,16
    MemoryAllocator::mem_free(addr);
    80001eac:	00000097          	auipc	ra,0x0
    80001eb0:	7f0080e7          	jalr	2032(ra) # 8000269c <_ZN15MemoryAllocator8mem_freeEPv>
}
    80001eb4:	00813083          	ld	ra,8(sp)
    80001eb8:	00013403          	ld	s0,0(sp)
    80001ebc:	01010113          	addi	sp,sp,16
    80001ec0:	00008067          	ret

0000000080001ec4 <_ZN3TCB13thread_createEPPS_PFvPvES2_S2_>:
int TCB::thread_create(thread_t *handle, void(*start_routine)(void *), void *arg, void *stack_begin_address) {
    80001ec4:	fa010113          	addi	sp,sp,-96
    80001ec8:	04113c23          	sd	ra,88(sp)
    80001ecc:	04813823          	sd	s0,80(sp)
    80001ed0:	04913423          	sd	s1,72(sp)
    80001ed4:	05213023          	sd	s2,64(sp)
    80001ed8:	03313c23          	sd	s3,56(sp)
    80001edc:	03413823          	sd	s4,48(sp)
    80001ee0:	03513423          	sd	s5,40(sp)
    80001ee4:	06010413          	addi	s0,sp,96
    80001ee8:	00050993          	mv	s3,a0
    80001eec:	00058a13          	mv	s4,a1
    80001ef0:	00060a93          	mv	s5,a2
    80001ef4:	00068493          	mv	s1,a3
    Context context = {
    80001ef8:	00000797          	auipc	a5,0x0
    80001efc:	ee878793          	addi	a5,a5,-280 # 80001de0 <_ZN3TCB16wrapper_functionEv>
    80001f00:	faf43023          	sd	a5,-96(s0)
            (uint64) (stack_begin_address ? (uint64) stack_begin_address + DEFAULT_STACK_SIZE - 1 : 0)
    80001f04:	04068663          	beqz	a3,80001f50 <_ZN3TCB13thread_createEPPS_PFvPvES2_S2_+0x8c>
    80001f08:	000017b7          	lui	a5,0x1
    80001f0c:	fff78793          	addi	a5,a5,-1 # fff <_entry-0x7ffff001>
    80001f10:	00f687b3          	add	a5,a3,a5
    *handle = new TCB(start_routine, arg, stack_begin_address, context);
    80001f14:	fa043703          	ld	a4,-96(s0)
    80001f18:	fae43823          	sd	a4,-80(s0)
    80001f1c:	faf43c23          	sd	a5,-72(s0)
    80001f20:	05800513          	li	a0,88
    80001f24:	00000097          	auipc	ra,0x0
    80001f28:	f48080e7          	jalr	-184(ra) # 80001e6c <_ZN3TCBnwEm>
    80001f2c:	00050913          	mv	s2,a0
    80001f30:	fb043703          	ld	a4,-80(s0)
    80001f34:	fb843783          	ld	a5,-72(s0)
    80001f38:	00048693          	mv	a3,s1
    80001f3c:	000a8613          	mv	a2,s5
    80001f40:	000a0593          	mv	a1,s4
    80001f44:	00000097          	auipc	ra,0x0
    80001f48:	c60080e7          	jalr	-928(ra) # 80001ba4 <_ZN3TCBC1EPFvPvES0_S0_NS_7ContextE>
    80001f4c:	0280006f          	j	80001f74 <_ZN3TCB13thread_createEPPS_PFvPvES2_S2_+0xb0>
            (uint64) (stack_begin_address ? (uint64) stack_begin_address + DEFAULT_STACK_SIZE - 1 : 0)
    80001f50:	00000793          	li	a5,0
    80001f54:	fc1ff06f          	j	80001f14 <_ZN3TCB13thread_createEPPS_PFvPvES2_S2_+0x50>
    80001f58:	00050493          	mv	s1,a0
    *handle = new TCB(start_routine, arg, stack_begin_address, context);
    80001f5c:	00090513          	mv	a0,s2
    80001f60:	00000097          	auipc	ra,0x0
    80001f64:	f3c080e7          	jalr	-196(ra) # 80001e9c <_ZN3TCBdlEPv>
    80001f68:	00048513          	mv	a0,s1
    80001f6c:	0000b097          	auipc	ra,0xb
    80001f70:	a4c080e7          	jalr	-1460(ra) # 8000c9b8 <_Unwind_Resume>
    80001f74:	0129b023          	sd	s2,0(s3)
}
    80001f78:	00000513          	li	a0,0
    80001f7c:	05813083          	ld	ra,88(sp)
    80001f80:	05013403          	ld	s0,80(sp)
    80001f84:	04813483          	ld	s1,72(sp)
    80001f88:	04013903          	ld	s2,64(sp)
    80001f8c:	03813983          	ld	s3,56(sp)
    80001f90:	03013a03          	ld	s4,48(sp)
    80001f94:	02813a83          	ld	s5,40(sp)
    80001f98:	06010113          	addi	sp,sp,96
    80001f9c:	00008067          	ret

0000000080001fa0 <_ZNK3TCB14get_time_sliceEv>:

time_t TCB::get_time_slice() const {
    80001fa0:	ff010113          	addi	sp,sp,-16
    80001fa4:	00813423          	sd	s0,8(sp)
    80001fa8:	01010413          	addi	s0,sp,16
    return time_slice;
}
    80001fac:	03853503          	ld	a0,56(a0)
    80001fb0:	00813403          	ld	s0,8(sp)
    80001fb4:	01010113          	addi	sp,sp,16
    80001fb8:	00008067          	ret

0000000080001fbc <_ZNK3TCB11is_finishedEv>:

bool TCB::is_finished() const {
    80001fbc:	ff010113          	addi	sp,sp,-16
    80001fc0:	00813423          	sd	s0,8(sp)
    80001fc4:	01010413          	addi	s0,sp,16
    return status == FINISHED;
    80001fc8:	01852503          	lw	a0,24(a0)
    80001fcc:	ffc50513          	addi	a0,a0,-4
}
    80001fd0:	00153513          	seqz	a0,a0
    80001fd4:	00813403          	ld	s0,8(sp)
    80001fd8:	01010113          	addi	sp,sp,16
    80001fdc:	00008067          	ret

0000000080001fe0 <_ZN6ThreadD1Ev>:

Thread::Thread(void (*body)(void *), void *arg) : myHandle(nullptr) {
    thread_create(&myHandle, body, arg);
}

Thread::~Thread() {
    80001fe0:	fe010113          	addi	sp,sp,-32
    80001fe4:	00113c23          	sd	ra,24(sp)
    80001fe8:	00813823          	sd	s0,16(sp)
    80001fec:	00913423          	sd	s1,8(sp)
    80001ff0:	02010413          	addi	s0,sp,32
    80001ff4:	00050493          	mv	s1,a0
    80001ff8:	00009797          	auipc	a5,0x9
    80001ffc:	5f078793          	addi	a5,a5,1520 # 8000b5e8 <_ZTV6Thread+0x10>
    80002000:	00f53023          	sd	a5,0(a0)
    myHandle -> set_status(TCB::FINISHED);
    80002004:	00400593          	li	a1,4
    80002008:	00853503          	ld	a0,8(a0)
    8000200c:	00000097          	auipc	ra,0x0
    80002010:	d7c080e7          	jalr	-644(ra) # 80001d88 <_ZN3TCB10set_statusENS_6StatusE>
    delete myHandle;
    80002014:	0084b503          	ld	a0,8(s1)
    80002018:	00050663          	beqz	a0,80002024 <_ZN6ThreadD1Ev+0x44>
    8000201c:	00000097          	auipc	ra,0x0
    80002020:	e80080e7          	jalr	-384(ra) # 80001e9c <_ZN3TCBdlEPv>
}
    80002024:	01813083          	ld	ra,24(sp)
    80002028:	01013403          	ld	s0,16(sp)
    8000202c:	00813483          	ld	s1,8(sp)
    80002030:	02010113          	addi	sp,sp,32
    80002034:	00008067          	ret

0000000080002038 <_ZN9SemaphoreD1Ev>:

Semaphore::Semaphore(unsigned int init) : myHandle(nullptr) {
    sem_open(&myHandle, init);
}

Semaphore::~Semaphore() {
    80002038:	00009797          	auipc	a5,0x9
    8000203c:	5d878793          	addi	a5,a5,1496 # 8000b610 <_ZTV9Semaphore+0x10>
    80002040:	00f53023          	sd	a5,0(a0)
    if (myHandle) sem_close(myHandle);
    80002044:	00853503          	ld	a0,8(a0)
    80002048:	02050663          	beqz	a0,80002074 <_ZN9SemaphoreD1Ev+0x3c>
Semaphore::~Semaphore() {
    8000204c:	ff010113          	addi	sp,sp,-16
    80002050:	00113423          	sd	ra,8(sp)
    80002054:	00813023          	sd	s0,0(sp)
    80002058:	01010413          	addi	s0,sp,16
    if (myHandle) sem_close(myHandle);
    8000205c:	fffff097          	auipc	ra,0xfffff
    80002060:	3c8080e7          	jalr	968(ra) # 80001424 <_Z9sem_closeP3Sem>
}
    80002064:	00813083          	ld	ra,8(sp)
    80002068:	00013403          	ld	s0,0(sp)
    8000206c:	01010113          	addi	sp,sp,16
    80002070:	00008067          	ret
    80002074:	00008067          	ret

0000000080002078 <_Znwm>:
void* operator new(size_t size){
    80002078:	ff010113          	addi	sp,sp,-16
    8000207c:	00113423          	sd	ra,8(sp)
    80002080:	00813023          	sd	s0,0(sp)
    80002084:	01010413          	addi	s0,sp,16
    return mem_alloc(size);
    80002088:	fffff097          	auipc	ra,0xfffff
    8000208c:	1d0080e7          	jalr	464(ra) # 80001258 <_Z9mem_allocm>
}
    80002090:	00813083          	ld	ra,8(sp)
    80002094:	00013403          	ld	s0,0(sp)
    80002098:	01010113          	addi	sp,sp,16
    8000209c:	00008067          	ret

00000000800020a0 <_ZdlPv>:
void operator delete(void* p) noexcept {
    800020a0:	ff010113          	addi	sp,sp,-16
    800020a4:	00113423          	sd	ra,8(sp)
    800020a8:	00813023          	sd	s0,0(sp)
    800020ac:	01010413          	addi	s0,sp,16
    mem_free(p);
    800020b0:	fffff097          	auipc	ra,0xfffff
    800020b4:	1fc080e7          	jalr	508(ra) # 800012ac <_Z8mem_freePv>
}
    800020b8:	00813083          	ld	ra,8(sp)
    800020bc:	00013403          	ld	s0,0(sp)
    800020c0:	01010113          	addi	sp,sp,16
    800020c4:	00008067          	ret

00000000800020c8 <_ZN6ThreadD0Ev>:
Thread::~Thread() {
    800020c8:	fe010113          	addi	sp,sp,-32
    800020cc:	00113c23          	sd	ra,24(sp)
    800020d0:	00813823          	sd	s0,16(sp)
    800020d4:	00913423          	sd	s1,8(sp)
    800020d8:	02010413          	addi	s0,sp,32
    800020dc:	00050493          	mv	s1,a0
}
    800020e0:	00000097          	auipc	ra,0x0
    800020e4:	f00080e7          	jalr	-256(ra) # 80001fe0 <_ZN6ThreadD1Ev>
    800020e8:	00048513          	mv	a0,s1
    800020ec:	00000097          	auipc	ra,0x0
    800020f0:	fb4080e7          	jalr	-76(ra) # 800020a0 <_ZdlPv>
    800020f4:	01813083          	ld	ra,24(sp)
    800020f8:	01013403          	ld	s0,16(sp)
    800020fc:	00813483          	ld	s1,8(sp)
    80002100:	02010113          	addi	sp,sp,32
    80002104:	00008067          	ret

0000000080002108 <_ZN9SemaphoreD0Ev>:
Semaphore::~Semaphore() {
    80002108:	fe010113          	addi	sp,sp,-32
    8000210c:	00113c23          	sd	ra,24(sp)
    80002110:	00813823          	sd	s0,16(sp)
    80002114:	00913423          	sd	s1,8(sp)
    80002118:	02010413          	addi	s0,sp,32
    8000211c:	00050493          	mv	s1,a0
}
    80002120:	00000097          	auipc	ra,0x0
    80002124:	f18080e7          	jalr	-232(ra) # 80002038 <_ZN9SemaphoreD1Ev>
    80002128:	00048513          	mv	a0,s1
    8000212c:	00000097          	auipc	ra,0x0
    80002130:	f74080e7          	jalr	-140(ra) # 800020a0 <_ZdlPv>
    80002134:	01813083          	ld	ra,24(sp)
    80002138:	01013403          	ld	s0,16(sp)
    8000213c:	00813483          	ld	s1,8(sp)
    80002140:	02010113          	addi	sp,sp,32
    80002144:	00008067          	ret

0000000080002148 <_ZN6ThreadC1EPFvPvES0_>:
Thread::Thread(void (*body)(void *), void *arg) : myHandle(nullptr) {
    80002148:	ff010113          	addi	sp,sp,-16
    8000214c:	00113423          	sd	ra,8(sp)
    80002150:	00813023          	sd	s0,0(sp)
    80002154:	01010413          	addi	s0,sp,16
    80002158:	00009797          	auipc	a5,0x9
    8000215c:	49078793          	addi	a5,a5,1168 # 8000b5e8 <_ZTV6Thread+0x10>
    80002160:	00f53023          	sd	a5,0(a0)
    80002164:	00053423          	sd	zero,8(a0)
    thread_create(&myHandle, body, arg);
    80002168:	00850513          	addi	a0,a0,8
    8000216c:	fffff097          	auipc	ra,0xfffff
    80002170:	18c080e7          	jalr	396(ra) # 800012f8 <_Z13thread_createPP3TCBPFvPvES2_>
}
    80002174:	00813083          	ld	ra,8(sp)
    80002178:	00013403          	ld	s0,0(sp)
    8000217c:	01010113          	addi	sp,sp,16
    80002180:	00008067          	ret

0000000080002184 <_ZN6Thread5startEv>:
int Thread::start() {
    80002184:	ff010113          	addi	sp,sp,-16
    80002188:	00113423          	sd	ra,8(sp)
    8000218c:	00813023          	sd	s0,0(sp)
    80002190:	01010413          	addi	s0,sp,16
    myHandle -> start();
    80002194:	00853503          	ld	a0,8(a0)
    80002198:	00000097          	auipc	ra,0x0
    8000219c:	c88080e7          	jalr	-888(ra) # 80001e20 <_ZN3TCB5startEv>
}
    800021a0:	00000513          	li	a0,0
    800021a4:	00813083          	ld	ra,8(sp)
    800021a8:	00013403          	ld	s0,0(sp)
    800021ac:	01010113          	addi	sp,sp,16
    800021b0:	00008067          	ret

00000000800021b4 <_ZN6Thread8dispatchEv>:
void Thread::dispatch() {
    800021b4:	ff010113          	addi	sp,sp,-16
    800021b8:	00113423          	sd	ra,8(sp)
    800021bc:	00813023          	sd	s0,0(sp)
    800021c0:	01010413          	addi	s0,sp,16
    thread_dispatch();
    800021c4:	fffff097          	auipc	ra,0xfffff
    800021c8:	208080e7          	jalr	520(ra) # 800013cc <_Z15thread_dispatchv>
}
    800021cc:	00813083          	ld	ra,8(sp)
    800021d0:	00013403          	ld	s0,0(sp)
    800021d4:	01010113          	addi	sp,sp,16
    800021d8:	00008067          	ret

00000000800021dc <_ZN6Thread5sleepEm>:
int Thread::sleep(time_t time) {
    800021dc:	ff010113          	addi	sp,sp,-16
    800021e0:	00113423          	sd	ra,8(sp)
    800021e4:	00813023          	sd	s0,0(sp)
    800021e8:	01010413          	addi	s0,sp,16
    time_sleep(time);
    800021ec:	fffff097          	auipc	ra,0xfffff
    800021f0:	2c4080e7          	jalr	708(ra) # 800014b0 <_Z10time_sleepm>
}
    800021f4:	00000513          	li	a0,0
    800021f8:	00813083          	ld	ra,8(sp)
    800021fc:	00013403          	ld	s0,0(sp)
    80002200:	01010113          	addi	sp,sp,16
    80002204:	00008067          	ret

0000000080002208 <_ZN6ThreadC1Ev>:
Thread::Thread() : myHandle(nullptr) {
    80002208:	ff010113          	addi	sp,sp,-16
    8000220c:	00813423          	sd	s0,8(sp)
    80002210:	01010413          	addi	s0,sp,16
    80002214:	00009797          	auipc	a5,0x9
    80002218:	3d478793          	addi	a5,a5,980 # 8000b5e8 <_ZTV6Thread+0x10>
    8000221c:	00f53023          	sd	a5,0(a0)
    80002220:	00053423          	sd	zero,8(a0)
}
    80002224:	00813403          	ld	s0,8(sp)
    80002228:	01010113          	addi	sp,sp,16
    8000222c:	00008067          	ret

0000000080002230 <_ZN9SemaphoreC1Ej>:
Semaphore::Semaphore(unsigned int init) : myHandle(nullptr) {
    80002230:	ff010113          	addi	sp,sp,-16
    80002234:	00113423          	sd	ra,8(sp)
    80002238:	00813023          	sd	s0,0(sp)
    8000223c:	01010413          	addi	s0,sp,16
    80002240:	00009797          	auipc	a5,0x9
    80002244:	3d078793          	addi	a5,a5,976 # 8000b610 <_ZTV9Semaphore+0x10>
    80002248:	00f53023          	sd	a5,0(a0)
    8000224c:	00053423          	sd	zero,8(a0)
    sem_open(&myHandle, init);
    80002250:	00850513          	addi	a0,a0,8
    80002254:	fffff097          	auipc	ra,0xfffff
    80002258:	1b4080e7          	jalr	436(ra) # 80001408 <_Z8sem_openPP3Semj>
}
    8000225c:	00813083          	ld	ra,8(sp)
    80002260:	00013403          	ld	s0,0(sp)
    80002264:	01010113          	addi	sp,sp,16
    80002268:	00008067          	ret

000000008000226c <_ZN9Semaphore4waitEv>:

int Semaphore::wait() {
    if (myHandle) return sem_wait(myHandle);
    8000226c:	00853503          	ld	a0,8(a0)
    80002270:	02050663          	beqz	a0,8000229c <_ZN9Semaphore4waitEv+0x30>
int Semaphore::wait() {
    80002274:	ff010113          	addi	sp,sp,-16
    80002278:	00113423          	sd	ra,8(sp)
    8000227c:	00813023          	sd	s0,0(sp)
    80002280:	01010413          	addi	s0,sp,16
    if (myHandle) return sem_wait(myHandle);
    80002284:	fffff097          	auipc	ra,0xfffff
    80002288:	1bc080e7          	jalr	444(ra) # 80001440 <_Z8sem_waitP3Sem>
    return -1;
}
    8000228c:	00813083          	ld	ra,8(sp)
    80002290:	00013403          	ld	s0,0(sp)
    80002294:	01010113          	addi	sp,sp,16
    80002298:	00008067          	ret
    return -1;
    8000229c:	fff00513          	li	a0,-1
}
    800022a0:	00008067          	ret

00000000800022a4 <_ZN9Semaphore6signalEv>:

int Semaphore::signal() {
    if (myHandle) return sem_signal(myHandle);
    800022a4:	00853503          	ld	a0,8(a0)
    800022a8:	02050663          	beqz	a0,800022d4 <_ZN9Semaphore6signalEv+0x30>
int Semaphore::signal() {
    800022ac:	ff010113          	addi	sp,sp,-16
    800022b0:	00113423          	sd	ra,8(sp)
    800022b4:	00813023          	sd	s0,0(sp)
    800022b8:	01010413          	addi	s0,sp,16
    if (myHandle) return sem_signal(myHandle);
    800022bc:	fffff097          	auipc	ra,0xfffff
    800022c0:	1a0080e7          	jalr	416(ra) # 8000145c <_Z10sem_signalP3Sem>
    return -1;
}
    800022c4:	00813083          	ld	ra,8(sp)
    800022c8:	00013403          	ld	s0,0(sp)
    800022cc:	01010113          	addi	sp,sp,16
    800022d0:	00008067          	ret
    return -1;
    800022d4:	fff00513          	li	a0,-1
}
    800022d8:	00008067          	ret

00000000800022dc <_ZN9Semaphore9timedWaitEm>:

int Semaphore::timedWait(time_t) {
    800022dc:	ff010113          	addi	sp,sp,-16
    800022e0:	00813423          	sd	s0,8(sp)
    800022e4:	01010413          	addi	s0,sp,16
    return 0;
}
    800022e8:	00000513          	li	a0,0
    800022ec:	00813403          	ld	s0,8(sp)
    800022f0:	01010113          	addi	sp,sp,16
    800022f4:	00008067          	ret

00000000800022f8 <_ZN9Semaphore7tryWaitEv>:

int Semaphore::tryWait() {
    800022f8:	ff010113          	addi	sp,sp,-16
    800022fc:	00813423          	sd	s0,8(sp)
    80002300:	01010413          	addi	s0,sp,16
    return 0;
}
    80002304:	00000513          	li	a0,0
    80002308:	00813403          	ld	s0,8(sp)
    8000230c:	01010113          	addi	sp,sp,16
    80002310:	00008067          	ret

0000000080002314 <_ZN14PeriodicThread9terminateEv>:

void PeriodicThread::terminate() {
    80002314:	ff010113          	addi	sp,sp,-16
    80002318:	00813423          	sd	s0,8(sp)
    8000231c:	01010413          	addi	s0,sp,16

}
    80002320:	00813403          	ld	s0,8(sp)
    80002324:	01010113          	addi	sp,sp,16
    80002328:	00008067          	ret

000000008000232c <_ZN14PeriodicThreadC1Em>:

PeriodicThread::PeriodicThread(time_t period) {
    8000232c:	fe010113          	addi	sp,sp,-32
    80002330:	00113c23          	sd	ra,24(sp)
    80002334:	00813823          	sd	s0,16(sp)
    80002338:	00913423          	sd	s1,8(sp)
    8000233c:	02010413          	addi	s0,sp,32
    80002340:	00050493          	mv	s1,a0
    80002344:	00000097          	auipc	ra,0x0
    80002348:	ec4080e7          	jalr	-316(ra) # 80002208 <_ZN6ThreadC1Ev>
    8000234c:	00009797          	auipc	a5,0x9
    80002350:	26c78793          	addi	a5,a5,620 # 8000b5b8 <_ZTV14PeriodicThread+0x10>
    80002354:	00f4b023          	sd	a5,0(s1)

}
    80002358:	01813083          	ld	ra,24(sp)
    8000235c:	01013403          	ld	s0,16(sp)
    80002360:	00813483          	ld	s1,8(sp)
    80002364:	02010113          	addi	sp,sp,32
    80002368:	00008067          	ret

000000008000236c <_ZN7Console4getcEv>:

char Console::getc() {
    8000236c:	ff010113          	addi	sp,sp,-16
    80002370:	00113423          	sd	ra,8(sp)
    80002374:	00813023          	sd	s0,0(sp)
    80002378:	01010413          	addi	s0,sp,16
    return ::getc();
    8000237c:	fffff097          	auipc	ra,0xfffff
    80002380:	150080e7          	jalr	336(ra) # 800014cc <_Z4getcv>
}
    80002384:	00813083          	ld	ra,8(sp)
    80002388:	00013403          	ld	s0,0(sp)
    8000238c:	01010113          	addi	sp,sp,16
    80002390:	00008067          	ret

0000000080002394 <_ZN7Console4putcEc>:

void Console::putc(char c) {
    80002394:	ff010113          	addi	sp,sp,-16
    80002398:	00113423          	sd	ra,8(sp)
    8000239c:	00813023          	sd	s0,0(sp)
    800023a0:	01010413          	addi	s0,sp,16
    ::putc(c);
    800023a4:	fffff097          	auipc	ra,0xfffff
    800023a8:	174080e7          	jalr	372(ra) # 80001518 <_Z4putcc>
}
    800023ac:	00813083          	ld	ra,8(sp)
    800023b0:	00013403          	ld	s0,0(sp)
    800023b4:	01010113          	addi	sp,sp,16
    800023b8:	00008067          	ret

00000000800023bc <_ZN6Thread3runEv>:
    int start ();
    static void dispatch ();
    static int sleep (time_t);
protected:
    Thread ();
    virtual void run () {}
    800023bc:	ff010113          	addi	sp,sp,-16
    800023c0:	00813423          	sd	s0,8(sp)
    800023c4:	01010413          	addi	s0,sp,16
    800023c8:	00813403          	ld	s0,8(sp)
    800023cc:	01010113          	addi	sp,sp,16
    800023d0:	00008067          	ret

00000000800023d4 <_ZN14PeriodicThread18periodicActivationEv>:
class PeriodicThread : public Thread {
public:
    void terminate ();
protected:
    PeriodicThread (time_t period);
    virtual void periodicActivation () {}
    800023d4:	ff010113          	addi	sp,sp,-16
    800023d8:	00813423          	sd	s0,8(sp)
    800023dc:	01010413          	addi	s0,sp,16
    800023e0:	00813403          	ld	s0,8(sp)
    800023e4:	01010113          	addi	sp,sp,16
    800023e8:	00008067          	ret

00000000800023ec <_ZN14PeriodicThreadD1Ev>:
class PeriodicThread : public Thread {
    800023ec:	ff010113          	addi	sp,sp,-16
    800023f0:	00113423          	sd	ra,8(sp)
    800023f4:	00813023          	sd	s0,0(sp)
    800023f8:	01010413          	addi	s0,sp,16
    800023fc:	00009797          	auipc	a5,0x9
    80002400:	1bc78793          	addi	a5,a5,444 # 8000b5b8 <_ZTV14PeriodicThread+0x10>
    80002404:	00f53023          	sd	a5,0(a0)
    80002408:	00000097          	auipc	ra,0x0
    8000240c:	bd8080e7          	jalr	-1064(ra) # 80001fe0 <_ZN6ThreadD1Ev>
    80002410:	00813083          	ld	ra,8(sp)
    80002414:	00013403          	ld	s0,0(sp)
    80002418:	01010113          	addi	sp,sp,16
    8000241c:	00008067          	ret

0000000080002420 <_ZN14PeriodicThreadD0Ev>:
    80002420:	fe010113          	addi	sp,sp,-32
    80002424:	00113c23          	sd	ra,24(sp)
    80002428:	00813823          	sd	s0,16(sp)
    8000242c:	00913423          	sd	s1,8(sp)
    80002430:	02010413          	addi	s0,sp,32
    80002434:	00050493          	mv	s1,a0
    80002438:	00009797          	auipc	a5,0x9
    8000243c:	18078793          	addi	a5,a5,384 # 8000b5b8 <_ZTV14PeriodicThread+0x10>
    80002440:	00f53023          	sd	a5,0(a0)
    80002444:	00000097          	auipc	ra,0x0
    80002448:	b9c080e7          	jalr	-1124(ra) # 80001fe0 <_ZN6ThreadD1Ev>
    8000244c:	00048513          	mv	a0,s1
    80002450:	00000097          	auipc	ra,0x0
    80002454:	c50080e7          	jalr	-944(ra) # 800020a0 <_ZdlPv>
    80002458:	01813083          	ld	ra,24(sp)
    8000245c:	01013403          	ld	s0,16(sp)
    80002460:	00813483          	ld	s1,8(sp)
    80002464:	02010113          	addi	sp,sp,32
    80002468:	00008067          	ret

000000008000246c <_ZN15MemoryAllocator10removeNodeEPNS_6MemSegES1_b>:
        instance = (MemoryAllocator*) MemoryAllocator::mem_alloc(sizeof(MemoryAllocator));
    }
}

/// helper function for removing element from linked list
void MemoryAllocator::removeNode(MemSeg *toRemove, MemSeg *nextSeg, bool newIsCreated) {
    8000246c:	ff010113          	addi	sp,sp,-16
    80002470:	00813423          	sd	s0,8(sp)
    80002474:	01010413          	addi	s0,sp,16
    if (toRemove -> prev) toRemove -> prev -> next = nextSeg;
    80002478:	00853783          	ld	a5,8(a0)
    8000247c:	02078463          	beqz	a5,800024a4 <_ZN15MemoryAllocator10removeNodeEPNS_6MemSegES1_b+0x38>
    80002480:	00b7b823          	sd	a1,16(a5)
    else freeSegHead = nextSeg;
    if (toRemove -> next) toRemove -> next -> prev = (newIsCreated) ? toRemove -> prev : nextSeg;
    80002484:	01053783          	ld	a5,16(a0)
    80002488:	00078863          	beqz	a5,80002498 <_ZN15MemoryAllocator10removeNodeEPNS_6MemSegES1_b+0x2c>
    8000248c:	00060463          	beqz	a2,80002494 <_ZN15MemoryAllocator10removeNodeEPNS_6MemSegES1_b+0x28>
    80002490:	00853583          	ld	a1,8(a0)
    80002494:	00b7b423          	sd	a1,8(a5)
}
    80002498:	00813403          	ld	s0,8(sp)
    8000249c:	01010113          	addi	sp,sp,16
    800024a0:	00008067          	ret
    else freeSegHead = nextSeg;
    800024a4:	00009797          	auipc	a5,0x9
    800024a8:	3cb7b623          	sd	a1,972(a5) # 8000b870 <_ZN15MemoryAllocator11freeSegHeadE>
    800024ac:	fd9ff06f          	j	80002484 <_ZN15MemoryAllocator10removeNodeEPNS_6MemSegES1_b+0x18>

00000000800024b0 <_ZN15MemoryAllocator9mem_allocEm>:

/// allocate `size` blocks
void *MemoryAllocator::mem_alloc(size_t size) {
    800024b0:	fe010113          	addi	sp,sp,-32
    800024b4:	00113c23          	sd	ra,24(sp)
    800024b8:	00813823          	sd	s0,16(sp)
    800024bc:	00913423          	sd	s1,8(sp)
    800024c0:	01213023          	sd	s2,0(sp)
    800024c4:	02010413          	addi	s0,sp,32
    if (size <= 0) return nullptr;
    800024c8:	0e050e63          	beqz	a0,800025c4 <_ZN15MemoryAllocator9mem_allocEm+0x114>
    size_t bytesToAllocate = size * MEM_BLOCK_SIZE;
    800024cc:	00651913          	slli	s2,a0,0x6
    MemSeg *tmp = freeSegHead;
    800024d0:	00009497          	auipc	s1,0x9
    800024d4:	3a04b483          	ld	s1,928(s1) # 8000b870 <_ZN15MemoryAllocator11freeSegHeadE>
    while (tmp) {
    800024d8:	0a048e63          	beqz	s1,80002594 <_ZN15MemoryAllocator9mem_allocEm+0xe4>
        if (tmp -> size < bytesToAllocate) {
    800024dc:	0004b783          	ld	a5,0(s1)
    800024e0:	0527e463          	bltu	a5,s2,80002528 <_ZN15MemoryAllocator9mem_allocEm+0x78>
            tmp = tmp -> next;
            continue;
        }
        /// update free memory list
        size_t remaining = tmp -> size - bytesToAllocate;
    800024e4:	412787b3          	sub	a5,a5,s2
        if (remaining < sizeof(MemSeg)) removeNode(tmp, tmp->next, false);
    800024e8:	01700713          	li	a4,23
    800024ec:	04f76263          	bltu	a4,a5,80002530 <_ZN15MemoryAllocator9mem_allocEm+0x80>
    800024f0:	00000613          	li	a2,0
    800024f4:	0104b583          	ld	a1,16(s1)
    800024f8:	00048513          	mv	a0,s1
    800024fc:	00000097          	auipc	ra,0x0
    80002500:	f70080e7          	jalr	-144(ra) # 8000246c <_ZN15MemoryAllocator10removeNodeEPNS_6MemSegES1_b>
        }

        /// update used memory list
        /// insert segment after tmp2
        MemSeg* tmp2 = 0;
        if (usedSegHead && (char*) tmp > (char*) usedSegHead)
    80002504:	00009797          	auipc	a5,0x9
    80002508:	3747b783          	ld	a5,884(a5) # 8000b878 <_ZN15MemoryAllocator11usedSegHeadE>
    8000250c:	04078863          	beqz	a5,8000255c <_ZN15MemoryAllocator9mem_allocEm+0xac>
    80002510:	0497fa63          	bgeu	a5,s1,80002564 <_ZN15MemoryAllocator9mem_allocEm+0xb4>
            for (tmp2 = usedSegHead; tmp2 -> next && (char*) tmp > (char*) (tmp2 -> next); tmp2 = tmp2 -> next);
    80002514:	00078713          	mv	a4,a5
    80002518:	0107b783          	ld	a5,16(a5)
    8000251c:	04078663          	beqz	a5,80002568 <_ZN15MemoryAllocator9mem_allocEm+0xb8>
    80002520:	fe97eae3          	bltu	a5,s1,80002514 <_ZN15MemoryAllocator9mem_allocEm+0x64>
    80002524:	0440006f          	j	80002568 <_ZN15MemoryAllocator9mem_allocEm+0xb8>
            tmp = tmp -> next;
    80002528:	0104b483          	ld	s1,16(s1)
    while (tmp) {
    8000252c:	fadff06f          	j	800024d8 <_ZN15MemoryAllocator9mem_allocEm+0x28>
            MemSeg* newFree = (MemSeg*) ((char*) tmp + bytesToAllocate);
    80002530:	012485b3          	add	a1,s1,s2
            newFree -> prev = tmp -> prev;
    80002534:	0084b703          	ld	a4,8(s1)
    80002538:	00e5b423          	sd	a4,8(a1)
            newFree -> next = tmp -> next;
    8000253c:	0104b703          	ld	a4,16(s1)
    80002540:	00e5b823          	sd	a4,16(a1)
            newFree -> size = remaining;
    80002544:	00f5b023          	sd	a5,0(a1)
            removeNode(tmp, newFree, true);
    80002548:	00100613          	li	a2,1
    8000254c:	00048513          	mv	a0,s1
    80002550:	00000097          	auipc	ra,0x0
    80002554:	f1c080e7          	jalr	-228(ra) # 8000246c <_ZN15MemoryAllocator10removeNodeEPNS_6MemSegES1_b>
    80002558:	fadff06f          	j	80002504 <_ZN15MemoryAllocator9mem_allocEm+0x54>
        MemSeg* tmp2 = 0;
    8000255c:	00078713          	mv	a4,a5
    80002560:	0080006f          	j	80002568 <_ZN15MemoryAllocator9mem_allocEm+0xb8>
    80002564:	00000713          	li	a4,0
        MemSeg* newUsed = (MemSeg*) tmp;
        newUsed -> size = bytesToAllocate;
    80002568:	0124b023          	sd	s2,0(s1)
        newUsed -> prev = tmp2;
    8000256c:	00e4b423          	sd	a4,8(s1)
        newUsed -> next = (tmp2) ? tmp2 -> next : nullptr;
    80002570:	04070063          	beqz	a4,800025b0 <_ZN15MemoryAllocator9mem_allocEm+0x100>
    80002574:	01073783          	ld	a5,16(a4)
    80002578:	00f4b823          	sd	a5,16(s1)
        if (tmp2) tmp2 -> next = newUsed;
    8000257c:	02070e63          	beqz	a4,800025b8 <_ZN15MemoryAllocator9mem_allocEm+0x108>
    80002580:	00973823          	sd	s1,16(a4)
        else usedSegHead = newUsed;
        if (newUsed -> next) newUsed -> next -> prev = newUsed;
    80002584:	0104b783          	ld	a5,16(s1)
    80002588:	00078463          	beqz	a5,80002590 <_ZN15MemoryAllocator9mem_allocEm+0xe0>
    8000258c:	0097b423          	sd	s1,8(a5)
        return (void*) ((char*)tmp + sizeof(MemSeg));
    80002590:	01848493          	addi	s1,s1,24
    }
    return nullptr;
}
    80002594:	00048513          	mv	a0,s1
    80002598:	01813083          	ld	ra,24(sp)
    8000259c:	01013403          	ld	s0,16(sp)
    800025a0:	00813483          	ld	s1,8(sp)
    800025a4:	00013903          	ld	s2,0(sp)
    800025a8:	02010113          	addi	sp,sp,32
    800025ac:	00008067          	ret
        newUsed -> next = (tmp2) ? tmp2 -> next : nullptr;
    800025b0:	00070793          	mv	a5,a4
    800025b4:	fc5ff06f          	j	80002578 <_ZN15MemoryAllocator9mem_allocEm+0xc8>
        else usedSegHead = newUsed;
    800025b8:	00009797          	auipc	a5,0x9
    800025bc:	2c97b023          	sd	s1,704(a5) # 8000b878 <_ZN15MemoryAllocator11usedSegHeadE>
    800025c0:	fc5ff06f          	j	80002584 <_ZN15MemoryAllocator9mem_allocEm+0xd4>
    if (size <= 0) return nullptr;
    800025c4:	00000493          	li	s1,0
    800025c8:	fcdff06f          	j	80002594 <_ZN15MemoryAllocator9mem_allocEm+0xe4>

00000000800025cc <_ZN15MemoryAllocator10initializeEv>:
    if (!instance) {
    800025cc:	00009797          	auipc	a5,0x9
    800025d0:	2b47b783          	ld	a5,692(a5) # 8000b880 <_ZN15MemoryAllocator8instanceE>
    800025d4:	00078463          	beqz	a5,800025dc <_ZN15MemoryAllocator10initializeEv+0x10>
    800025d8:	00008067          	ret
void MemoryAllocator::initialize() {
    800025dc:	fe010113          	addi	sp,sp,-32
    800025e0:	00113c23          	sd	ra,24(sp)
    800025e4:	00813823          	sd	s0,16(sp)
    800025e8:	00913423          	sd	s1,8(sp)
    800025ec:	02010413          	addi	s0,sp,32
        freeSegHead = (MemSeg*) HEAP_START_ADDR;
    800025f0:	00009797          	auipc	a5,0x9
    800025f4:	1e07b783          	ld	a5,480(a5) # 8000b7d0 <_GLOBAL_OFFSET_TABLE_+0x8>
    800025f8:	0007b783          	ld	a5,0(a5)
    800025fc:	00009497          	auipc	s1,0x9
    80002600:	27448493          	addi	s1,s1,628 # 8000b870 <_ZN15MemoryAllocator11freeSegHeadE>
    80002604:	00f4b023          	sd	a5,0(s1)
        freeSegHead -> size = (size_t) HEAP_END_ADDR - (size_t) HEAP_START_ADDR;
    80002608:	00009717          	auipc	a4,0x9
    8000260c:	1e873703          	ld	a4,488(a4) # 8000b7f0 <_GLOBAL_OFFSET_TABLE_+0x28>
    80002610:	00073703          	ld	a4,0(a4)
    80002614:	40f70733          	sub	a4,a4,a5
    80002618:	00e7b023          	sd	a4,0(a5)
        freeSegHead -> prev = nullptr;
    8000261c:	0004b783          	ld	a5,0(s1)
    80002620:	0007b423          	sd	zero,8(a5)
        freeSegHead -> next = nullptr;
    80002624:	0007b823          	sd	zero,16(a5)
        instance = (MemoryAllocator*) MemoryAllocator::mem_alloc(sizeof(MemoryAllocator));
    80002628:	00100513          	li	a0,1
    8000262c:	00000097          	auipc	ra,0x0
    80002630:	e84080e7          	jalr	-380(ra) # 800024b0 <_ZN15MemoryAllocator9mem_allocEm>
    80002634:	00a4b823          	sd	a0,16(s1)
}
    80002638:	01813083          	ld	ra,24(sp)
    8000263c:	01013403          	ld	s0,16(sp)
    80002640:	00813483          	ld	s1,8(sp)
    80002644:	02010113          	addi	sp,sp,32
    80002648:	00008067          	ret

000000008000264c <_ZN15MemoryAllocator9tryToJoinEPNS_6MemSegE>:
    }
    return 0;
}

/// join free segment with next if possible
void MemoryAllocator::tryToJoin(MemSeg *seg) {
    8000264c:	ff010113          	addi	sp,sp,-16
    80002650:	00813423          	sd	s0,8(sp)
    80002654:	01010413          	addi	s0,sp,16
    if (seg -> next && (char*) seg + seg -> size == (char*) seg -> next) {
    80002658:	01053783          	ld	a5,16(a0)
    8000265c:	00078863          	beqz	a5,8000266c <_ZN15MemoryAllocator9tryToJoinEPNS_6MemSegE+0x20>
    80002660:	00053703          	ld	a4,0(a0)
    80002664:	00e506b3          	add	a3,a0,a4
    80002668:	00d78863          	beq	a5,a3,80002678 <_ZN15MemoryAllocator9tryToJoinEPNS_6MemSegE+0x2c>
        seg -> size += sizeof(MemSeg) + seg -> next -> size;
        seg -> next = seg -> next -> next;
        if (seg -> next) seg -> next -> prev = seg;
    }
}
    8000266c:	00813403          	ld	s0,8(sp)
    80002670:	01010113          	addi	sp,sp,16
    80002674:	00008067          	ret
        seg -> size += sizeof(MemSeg) + seg -> next -> size;
    80002678:	0007b683          	ld	a3,0(a5)
    8000267c:	00d70733          	add	a4,a4,a3
    80002680:	01870713          	addi	a4,a4,24
    80002684:	00e53023          	sd	a4,0(a0)
        seg -> next = seg -> next -> next;
    80002688:	0107b783          	ld	a5,16(a5)
    8000268c:	00f53823          	sd	a5,16(a0)
        if (seg -> next) seg -> next -> prev = seg;
    80002690:	fc078ee3          	beqz	a5,8000266c <_ZN15MemoryAllocator9tryToJoinEPNS_6MemSegE+0x20>
    80002694:	00a7b423          	sd	a0,8(a5)
}
    80002698:	fd5ff06f          	j	8000266c <_ZN15MemoryAllocator9tryToJoinEPNS_6MemSegE+0x20>

000000008000269c <_ZN15MemoryAllocator8mem_freeEPv>:
    if (!addr || addr < HEAP_START_ADDR || addr > HEAP_END_ADDR) return -1;
    8000269c:	14050263          	beqz	a0,800027e0 <_ZN15MemoryAllocator8mem_freeEPv+0x144>
int MemoryAllocator::mem_free(void *addr) {
    800026a0:	fd010113          	addi	sp,sp,-48
    800026a4:	02113423          	sd	ra,40(sp)
    800026a8:	02813023          	sd	s0,32(sp)
    800026ac:	00913c23          	sd	s1,24(sp)
    800026b0:	01213823          	sd	s2,16(sp)
    800026b4:	01313423          	sd	s3,8(sp)
    800026b8:	03010413          	addi	s0,sp,48
    800026bc:	00050913          	mv	s2,a0
    if (!addr || addr < HEAP_START_ADDR || addr > HEAP_END_ADDR) return -1;
    800026c0:	00009797          	auipc	a5,0x9
    800026c4:	1107b783          	ld	a5,272(a5) # 8000b7d0 <_GLOBAL_OFFSET_TABLE_+0x8>
    800026c8:	0007b783          	ld	a5,0(a5)
    800026cc:	10f56e63          	bltu	a0,a5,800027e8 <_ZN15MemoryAllocator8mem_freeEPv+0x14c>
    800026d0:	00009797          	auipc	a5,0x9
    800026d4:	1207b783          	ld	a5,288(a5) # 8000b7f0 <_GLOBAL_OFFSET_TABLE_+0x28>
    800026d8:	0007b783          	ld	a5,0(a5)
    800026dc:	10a7ea63          	bltu	a5,a0,800027f0 <_ZN15MemoryAllocator8mem_freeEPv+0x154>
    if (!usedSegHead) return -2;
    800026e0:	00009797          	auipc	a5,0x9
    800026e4:	1987b783          	ld	a5,408(a5) # 8000b878 <_ZN15MemoryAllocator11usedSegHeadE>
    800026e8:	10078863          	beqz	a5,800027f8 <_ZN15MemoryAllocator8mem_freeEPv+0x15c>
    addr = (void*) ((char*) addr - sizeof(MemSeg));
    800026ec:	fe850493          	addi	s1,a0,-24
    for (MemSeg *tmp = usedSegHead; tmp; tmp = tmp -> next)
    800026f0:	00078863          	beqz	a5,80002700 <_ZN15MemoryAllocator8mem_freeEPv+0x64>
        if (tmp == segToFree) {
    800026f4:	08978e63          	beq	a5,s1,80002790 <_ZN15MemoryAllocator8mem_freeEPv+0xf4>
    for (MemSeg *tmp = usedSegHead; tmp; tmp = tmp -> next)
    800026f8:	0107b783          	ld	a5,16(a5)
    800026fc:	ff5ff06f          	j	800026f0 <_ZN15MemoryAllocator8mem_freeEPv+0x54>
    bool found = false;
    80002700:	00000793          	li	a5,0
    if (!found) return -3;
    80002704:	0e078e63          	beqz	a5,80002800 <_ZN15MemoryAllocator8mem_freeEPv+0x164>
    removeNode(segToFree, segToFree -> next, false);
    80002708:	00000613          	li	a2,0
    8000270c:	ff893583          	ld	a1,-8(s2)
    80002710:	00048513          	mv	a0,s1
    80002714:	00000097          	auipc	ra,0x0
    80002718:	d58080e7          	jalr	-680(ra) # 8000246c <_ZN15MemoryAllocator10removeNodeEPNS_6MemSegES1_b>
    if (!freeSegHead) {
    8000271c:	00009797          	auipc	a5,0x9
    80002720:	1547b783          	ld	a5,340(a5) # 8000b870 <_ZN15MemoryAllocator11freeSegHeadE>
    80002724:	06078a63          	beqz	a5,80002798 <_ZN15MemoryAllocator8mem_freeEPv+0xfc>
    else if ((char*) addr < (char*) freeSegHead) {
    80002728:	08f4e463          	bltu	s1,a5,800027b0 <_ZN15MemoryAllocator8mem_freeEPv+0x114>
        for (tmp = freeSegHead; tmp -> next && (char*) (tmp -> next) < (char*) segToFree; tmp = tmp -> next);
    8000272c:	00078993          	mv	s3,a5
    80002730:	0107b783          	ld	a5,16(a5)
    80002734:	00078463          	beqz	a5,8000273c <_ZN15MemoryAllocator8mem_freeEPv+0xa0>
    80002738:	fe97eae3          	bltu	a5,s1,8000272c <_ZN15MemoryAllocator8mem_freeEPv+0x90>
        segToFree -> prev = tmp;
    8000273c:	ff393823          	sd	s3,-16(s2)
        segToFree -> next = tmp -> next;
    80002740:	0109b783          	ld	a5,16(s3)
    80002744:	fef93c23          	sd	a5,-8(s2)
        tmp -> next = segToFree;
    80002748:	0099b823          	sd	s1,16(s3)
        if (segToFree -> next) segToFree -> next -> prev = segToFree;
    8000274c:	ff893783          	ld	a5,-8(s2)
    80002750:	00078463          	beqz	a5,80002758 <_ZN15MemoryAllocator8mem_freeEPv+0xbc>
    80002754:	0097b423          	sd	s1,8(a5)
        tryToJoin(segToFree);
    80002758:	00048513          	mv	a0,s1
    8000275c:	00000097          	auipc	ra,0x0
    80002760:	ef0080e7          	jalr	-272(ra) # 8000264c <_ZN15MemoryAllocator9tryToJoinEPNS_6MemSegE>
        tryToJoin(tmp);
    80002764:	00098513          	mv	a0,s3
    80002768:	00000097          	auipc	ra,0x0
    8000276c:	ee4080e7          	jalr	-284(ra) # 8000264c <_ZN15MemoryAllocator9tryToJoinEPNS_6MemSegE>
    return 0;
    80002770:	00000513          	li	a0,0
}
    80002774:	02813083          	ld	ra,40(sp)
    80002778:	02013403          	ld	s0,32(sp)
    8000277c:	01813483          	ld	s1,24(sp)
    80002780:	01013903          	ld	s2,16(sp)
    80002784:	00813983          	ld	s3,8(sp)
    80002788:	03010113          	addi	sp,sp,48
    8000278c:	00008067          	ret
            found = true;
    80002790:	00100793          	li	a5,1
    80002794:	f71ff06f          	j	80002704 <_ZN15MemoryAllocator8mem_freeEPv+0x68>
        freeSegHead = segToFree;
    80002798:	00009797          	auipc	a5,0x9
    8000279c:	0c97bc23          	sd	s1,216(a5) # 8000b870 <_ZN15MemoryAllocator11freeSegHeadE>
        segToFree -> prev = segToFree -> next = nullptr;
    800027a0:	fe093c23          	sd	zero,-8(s2)
    800027a4:	fe093823          	sd	zero,-16(s2)
    return 0;
    800027a8:	00000513          	li	a0,0
    800027ac:	fc9ff06f          	j	80002774 <_ZN15MemoryAllocator8mem_freeEPv+0xd8>
        segToFree -> prev = nullptr;
    800027b0:	fe093823          	sd	zero,-16(s2)
        segToFree -> next = freeSegHead;
    800027b4:	00009797          	auipc	a5,0x9
    800027b8:	0bc78793          	addi	a5,a5,188 # 8000b870 <_ZN15MemoryAllocator11freeSegHeadE>
    800027bc:	0007b703          	ld	a4,0(a5)
    800027c0:	fee93c23          	sd	a4,-8(s2)
        freeSegHead -> prev = segToFree;
    800027c4:	00973423          	sd	s1,8(a4)
        freeSegHead = segToFree;
    800027c8:	0097b023          	sd	s1,0(a5)
        tryToJoin(segToFree);
    800027cc:	00048513          	mv	a0,s1
    800027d0:	00000097          	auipc	ra,0x0
    800027d4:	e7c080e7          	jalr	-388(ra) # 8000264c <_ZN15MemoryAllocator9tryToJoinEPNS_6MemSegE>
    return 0;
    800027d8:	00000513          	li	a0,0
    800027dc:	f99ff06f          	j	80002774 <_ZN15MemoryAllocator8mem_freeEPv+0xd8>
    if (!addr || addr < HEAP_START_ADDR || addr > HEAP_END_ADDR) return -1;
    800027e0:	fff00513          	li	a0,-1
}
    800027e4:	00008067          	ret
    if (!addr || addr < HEAP_START_ADDR || addr > HEAP_END_ADDR) return -1;
    800027e8:	fff00513          	li	a0,-1
    800027ec:	f89ff06f          	j	80002774 <_ZN15MemoryAllocator8mem_freeEPv+0xd8>
    800027f0:	fff00513          	li	a0,-1
    800027f4:	f81ff06f          	j	80002774 <_ZN15MemoryAllocator8mem_freeEPv+0xd8>
    if (!usedSegHead) return -2;
    800027f8:	ffe00513          	li	a0,-2
    800027fc:	f79ff06f          	j	80002774 <_ZN15MemoryAllocator8mem_freeEPv+0xd8>
    if (!found) return -3;
    80002800:	ffd00513          	li	a0,-3
    80002804:	f71ff06f          	j	80002774 <_ZN15MemoryAllocator8mem_freeEPv+0xd8>

0000000080002808 <_ZN15MemoryAllocator5printEv>:

void MemoryAllocator::print() {
    80002808:	fe010113          	addi	sp,sp,-32
    8000280c:	00113c23          	sd	ra,24(sp)
    80002810:	00813823          	sd	s0,16(sp)
    80002814:	00913423          	sd	s1,8(sp)
    80002818:	02010413          	addi	s0,sp,32
    __putc('\n');
    8000281c:	00a00513          	li	a0,10
    80002820:	00006097          	auipc	ra,0x6
    80002824:	cec080e7          	jalr	-788(ra) # 8000850c <__putc>
    __putc('M');
    80002828:	04d00513          	li	a0,77
    8000282c:	00006097          	auipc	ra,0x6
    80002830:	ce0080e7          	jalr	-800(ra) # 8000850c <__putc>
    __putc(':');
    80002834:	03a00513          	li	a0,58
    80002838:	00006097          	auipc	ra,0x6
    8000283c:	cd4080e7          	jalr	-812(ra) # 8000850c <__putc>
    __putc(' ');
    80002840:	02000513          	li	a0,32
    80002844:	00006097          	auipc	ra,0x6
    80002848:	cc8080e7          	jalr	-824(ra) # 8000850c <__putc>
    for (MemSeg* tmp = freeSegHead; tmp; tmp = tmp -> next) __putc('f');
    8000284c:	00009497          	auipc	s1,0x9
    80002850:	0244b483          	ld	s1,36(s1) # 8000b870 <_ZN15MemoryAllocator11freeSegHeadE>
    80002854:	00048c63          	beqz	s1,8000286c <_ZN15MemoryAllocator5printEv+0x64>
    80002858:	06600513          	li	a0,102
    8000285c:	00006097          	auipc	ra,0x6
    80002860:	cb0080e7          	jalr	-848(ra) # 8000850c <__putc>
    80002864:	0104b483          	ld	s1,16(s1)
    80002868:	fedff06f          	j	80002854 <_ZN15MemoryAllocator5printEv+0x4c>
    __putc('\t');
    8000286c:	00900513          	li	a0,9
    80002870:	00006097          	auipc	ra,0x6
    80002874:	c9c080e7          	jalr	-868(ra) # 8000850c <__putc>
    for (MemSeg* tmp = usedSegHead; tmp; tmp = tmp -> next) __putc('u');
    80002878:	00009497          	auipc	s1,0x9
    8000287c:	0004b483          	ld	s1,0(s1) # 8000b878 <_ZN15MemoryAllocator11usedSegHeadE>
    80002880:	00048c63          	beqz	s1,80002898 <_ZN15MemoryAllocator5printEv+0x90>
    80002884:	07500513          	li	a0,117
    80002888:	00006097          	auipc	ra,0x6
    8000288c:	c84080e7          	jalr	-892(ra) # 8000850c <__putc>
    80002890:	0104b483          	ld	s1,16(s1)
    80002894:	fedff06f          	j	80002880 <_ZN15MemoryAllocator5printEv+0x78>
}
    80002898:	01813083          	ld	ra,24(sp)
    8000289c:	01013403          	ld	s0,16(sp)
    800028a0:	00813483          	ld	s1,8(sp)
    800028a4:	02010113          	addi	sp,sp,32
    800028a8:	00008067          	ret

00000000800028ac <_ZN15MemoryAllocator20get_number_of_blocksEm>:

size_t MemoryAllocator::get_number_of_blocks(size_t size) {
    800028ac:	ff010113          	addi	sp,sp,-16
    800028b0:	00813423          	sd	s0,8(sp)
    800028b4:	01010413          	addi	s0,sp,16
    return (size + sizeof(MemoryAllocator::MemSeg) + MEM_BLOCK_SIZE - 1) / MEM_BLOCK_SIZE;
    800028b8:	05750513          	addi	a0,a0,87
}
    800028bc:	00655513          	srli	a0,a0,0x6
    800028c0:	00813403          	ld	s0,8(sp)
    800028c4:	01010113          	addi	sp,sp,16
    800028c8:	00008067          	ret

00000000800028cc <_ZN9Scheduler3putEP3TCB>:

TCB* Scheduler::head_ready = nullptr;
TCB* Scheduler::tail_ready = nullptr;
TCB* Scheduler::head_sleeping = nullptr;

void Scheduler::put(TCB *thread) {
    800028cc:	fe010113          	addi	sp,sp,-32
    800028d0:	00113c23          	sd	ra,24(sp)
    800028d4:	00813823          	sd	s0,16(sp)
    800028d8:	00913423          	sd	s1,8(sp)
    800028dc:	02010413          	addi	s0,sp,32
    800028e0:	00050493          	mv	s1,a0
    if (tail_ready) {
    800028e4:	00009517          	auipc	a0,0x9
    800028e8:	fa453503          	ld	a0,-92(a0) # 8000b888 <_ZN9Scheduler10tail_readyE>
    800028ec:	02051463          	bnez	a0,80002914 <_ZN9Scheduler3putEP3TCB+0x48>
        tail_ready -> set_next_ready(thread);
        tail_ready = thread;
        return;
    }
    head_ready = tail_ready = thread;
    800028f0:	00009797          	auipc	a5,0x9
    800028f4:	f9878793          	addi	a5,a5,-104 # 8000b888 <_ZN9Scheduler10tail_readyE>
    800028f8:	0097b023          	sd	s1,0(a5)
    800028fc:	0097b423          	sd	s1,8(a5)
}
    80002900:	01813083          	ld	ra,24(sp)
    80002904:	01013403          	ld	s0,16(sp)
    80002908:	00813483          	ld	s1,8(sp)
    8000290c:	02010113          	addi	sp,sp,32
    80002910:	00008067          	ret
        tail_ready -> set_next_ready(thread);
    80002914:	00048593          	mv	a1,s1
    80002918:	fffff097          	auipc	ra,0xfffff
    8000291c:	3e4080e7          	jalr	996(ra) # 80001cfc <_ZN3TCB14set_next_readyEPS_>
        tail_ready = thread;
    80002920:	00009797          	auipc	a5,0x9
    80002924:	f697b423          	sd	s1,-152(a5) # 8000b888 <_ZN9Scheduler10tail_readyE>
        return;
    80002928:	fd9ff06f          	j	80002900 <_ZN9Scheduler3putEP3TCB+0x34>

000000008000292c <_ZN9Scheduler3getEv>:

TCB* Scheduler::get() {
    8000292c:	fe010113          	addi	sp,sp,-32
    80002930:	00113c23          	sd	ra,24(sp)
    80002934:	00813823          	sd	s0,16(sp)
    80002938:	00913423          	sd	s1,8(sp)
    8000293c:	02010413          	addi	s0,sp,32
    if (!head_ready) return nullptr;
    80002940:	00009497          	auipc	s1,0x9
    80002944:	f504b483          	ld	s1,-176(s1) # 8000b890 <_ZN9Scheduler10head_readyE>
    80002948:	00048c63          	beqz	s1,80002960 <_ZN9Scheduler3getEv+0x34>
    TCB *head = head_ready;
    head_ready = head_ready -> get_next_ready();
    8000294c:	00048513          	mv	a0,s1
    80002950:	fffff097          	auipc	ra,0xfffff
    80002954:	390080e7          	jalr	912(ra) # 80001ce0 <_ZNK3TCB14get_next_readyEv>
    80002958:	00009797          	auipc	a5,0x9
    8000295c:	f2a7bc23          	sd	a0,-200(a5) # 8000b890 <_ZN9Scheduler10head_readyE>
    return head;
}
    80002960:	00048513          	mv	a0,s1
    80002964:	01813083          	ld	ra,24(sp)
    80002968:	01013403          	ld	s0,16(sp)
    8000296c:	00813483          	ld	s1,8(sp)
    80002970:	02010113          	addi	sp,sp,32
    80002974:	00008067          	ret

0000000080002978 <_ZN9Scheduler12put_to_sleepEP3TCBm>:

void Scheduler::put_to_sleep(TCB *thread, time_t time) {
    80002978:	fc010113          	addi	sp,sp,-64
    8000297c:	02113c23          	sd	ra,56(sp)
    80002980:	02813823          	sd	s0,48(sp)
    80002984:	02913423          	sd	s1,40(sp)
    80002988:	03213023          	sd	s2,32(sp)
    8000298c:	01313c23          	sd	s3,24(sp)
    80002990:	01413823          	sd	s4,16(sp)
    80002994:	01513423          	sd	s5,8(sp)
    80002998:	04010413          	addi	s0,sp,64
    8000299c:	00050a93          	mv	s5,a0
    800029a0:	00058993          	mv	s3,a1
    thread -> set_status(TCB::Status::SLEEPING);
    800029a4:	00100593          	li	a1,1
    800029a8:	fffff097          	auipc	ra,0xfffff
    800029ac:	3e0080e7          	jalr	992(ra) # 80001d88 <_ZN3TCB10set_statusENS_6StatusE>
    if (!head_sleeping) {
    800029b0:	00009497          	auipc	s1,0x9
    800029b4:	ee84b483          	ld	s1,-280(s1) # 8000b898 <_ZN9Scheduler13head_sleepingE>
    800029b8:	02048e63          	beqz	s1,800029f4 <_ZN9Scheduler12put_to_sleepEP3TCBm+0x7c>
        thread -> set_next_sleeping(nullptr);
        thread -> set_time_to_sleep(time);
        return;
    }
    TCB* tmp = head_sleeping, *prev = nullptr;
    time_t current_time = 0;
    800029bc:	00000913          	li	s2,0
    TCB* tmp = head_sleeping, *prev = nullptr;
    800029c0:	00000a13          	li	s4,0
    while (tmp) {
    800029c4:	04048c63          	beqz	s1,80002a1c <_ZN9Scheduler12put_to_sleepEP3TCBm+0xa4>
        current_time += tmp -> get_time_to_sleep();
    800029c8:	00048513          	mv	a0,s1
    800029cc:	fffff097          	auipc	ra,0xfffff
    800029d0:	3a0080e7          	jalr	928(ra) # 80001d6c <_ZNK3TCB17get_time_to_sleepEv>
    800029d4:	00a90933          	add	s2,s2,a0
        if (current_time > time) {
    800029d8:	0729e463          	bltu	s3,s2,80002a40 <_ZN9Scheduler12put_to_sleepEP3TCBm+0xc8>
            for (TCB* curr = tmp -> get_next_sleeping(); curr; curr = curr -> get_next_sleeping())
                curr -> set_time_to_sleep(curr -> get_time_to_sleep() - new_time);
            break;
        }
        prev = tmp;
        tmp = tmp -> get_next_sleeping();
    800029dc:	00048513          	mv	a0,s1
    800029e0:	fffff097          	auipc	ra,0xfffff
    800029e4:	354080e7          	jalr	852(ra) # 80001d34 <_ZNK3TCB17get_next_sleepingEv>
        prev = tmp;
    800029e8:	00048a13          	mv	s4,s1
        tmp = tmp -> get_next_sleeping();
    800029ec:	00050493          	mv	s1,a0
    while (tmp) {
    800029f0:	fd5ff06f          	j	800029c4 <_ZN9Scheduler12put_to_sleepEP3TCBm+0x4c>
        head_sleeping = thread;
    800029f4:	00009797          	auipc	a5,0x9
    800029f8:	eb57b223          	sd	s5,-348(a5) # 8000b898 <_ZN9Scheduler13head_sleepingE>
        thread -> set_next_sleeping(nullptr);
    800029fc:	00000593          	li	a1,0
    80002a00:	000a8513          	mv	a0,s5
    80002a04:	fffff097          	auipc	ra,0xfffff
    80002a08:	314080e7          	jalr	788(ra) # 80001d18 <_ZN3TCB17set_next_sleepingEPS_>
        thread -> set_time_to_sleep(time);
    80002a0c:	00098593          	mv	a1,s3
    80002a10:	000a8513          	mv	a0,s5
    80002a14:	fffff097          	auipc	ra,0xfffff
    80002a18:	33c080e7          	jalr	828(ra) # 80001d50 <_ZN3TCB17set_time_to_sleepEm>
    }
}
    80002a1c:	03813083          	ld	ra,56(sp)
    80002a20:	03013403          	ld	s0,48(sp)
    80002a24:	02813483          	ld	s1,40(sp)
    80002a28:	02013903          	ld	s2,32(sp)
    80002a2c:	01813983          	ld	s3,24(sp)
    80002a30:	01013a03          	ld	s4,16(sp)
    80002a34:	00813a83          	ld	s5,8(sp)
    80002a38:	04010113          	addi	sp,sp,64
    80002a3c:	00008067          	ret
            time_t new_time = prev ? time - prev -> get_time_to_sleep() : time;
    80002a40:	000a0a63          	beqz	s4,80002a54 <_ZN9Scheduler12put_to_sleepEP3TCBm+0xdc>
    80002a44:	000a0513          	mv	a0,s4
    80002a48:	fffff097          	auipc	ra,0xfffff
    80002a4c:	324080e7          	jalr	804(ra) # 80001d6c <_ZNK3TCB17get_time_to_sleepEv>
    80002a50:	40a989b3          	sub	s3,s3,a0
            thread -> set_time_to_sleep(new_time);
    80002a54:	00098593          	mv	a1,s3
    80002a58:	000a8513          	mv	a0,s5
    80002a5c:	fffff097          	auipc	ra,0xfffff
    80002a60:	2f4080e7          	jalr	756(ra) # 80001d50 <_ZN3TCB17set_time_to_sleepEm>
            thread -> set_next_sleeping(tmp);
    80002a64:	00048593          	mv	a1,s1
    80002a68:	000a8513          	mv	a0,s5
    80002a6c:	fffff097          	auipc	ra,0xfffff
    80002a70:	2ac080e7          	jalr	684(ra) # 80001d18 <_ZN3TCB17set_next_sleepingEPS_>
            if (prev) prev -> set_next_sleeping(thread);
    80002a74:	040a0c63          	beqz	s4,80002acc <_ZN9Scheduler12put_to_sleepEP3TCBm+0x154>
    80002a78:	000a8593          	mv	a1,s5
    80002a7c:	000a0513          	mv	a0,s4
    80002a80:	fffff097          	auipc	ra,0xfffff
    80002a84:	298080e7          	jalr	664(ra) # 80001d18 <_ZN3TCB17set_next_sleepingEPS_>
            for (TCB* curr = tmp -> get_next_sleeping(); curr; curr = curr -> get_next_sleeping())
    80002a88:	00048513          	mv	a0,s1
    80002a8c:	fffff097          	auipc	ra,0xfffff
    80002a90:	2a8080e7          	jalr	680(ra) # 80001d34 <_ZNK3TCB17get_next_sleepingEv>
    80002a94:	00050493          	mv	s1,a0
    80002a98:	f80482e3          	beqz	s1,80002a1c <_ZN9Scheduler12put_to_sleepEP3TCBm+0xa4>
                curr -> set_time_to_sleep(curr -> get_time_to_sleep() - new_time);
    80002a9c:	00048513          	mv	a0,s1
    80002aa0:	fffff097          	auipc	ra,0xfffff
    80002aa4:	2cc080e7          	jalr	716(ra) # 80001d6c <_ZNK3TCB17get_time_to_sleepEv>
    80002aa8:	413505b3          	sub	a1,a0,s3
    80002aac:	00048513          	mv	a0,s1
    80002ab0:	fffff097          	auipc	ra,0xfffff
    80002ab4:	2a0080e7          	jalr	672(ra) # 80001d50 <_ZN3TCB17set_time_to_sleepEm>
            for (TCB* curr = tmp -> get_next_sleeping(); curr; curr = curr -> get_next_sleeping())
    80002ab8:	00048513          	mv	a0,s1
    80002abc:	fffff097          	auipc	ra,0xfffff
    80002ac0:	278080e7          	jalr	632(ra) # 80001d34 <_ZNK3TCB17get_next_sleepingEv>
    80002ac4:	00050493          	mv	s1,a0
    80002ac8:	fd1ff06f          	j	80002a98 <_ZN9Scheduler12put_to_sleepEP3TCBm+0x120>
            else head_sleeping = thread;
    80002acc:	00009797          	auipc	a5,0x9
    80002ad0:	dd57b623          	sd	s5,-564(a5) # 8000b898 <_ZN9Scheduler13head_sleepingE>
    80002ad4:	fb5ff06f          	j	80002a88 <_ZN9Scheduler12put_to_sleepEP3TCBm+0x110>

0000000080002ad8 <_ZN5RiscV10popSppSpieEv>:
    SUPERVISOR_INTERRUPT = 0x0000000000000009UL,
};

/// used in thread wrapper function when initializing thread because thread stack is empty
/// pc = (sepc = ra)
void RiscV::popSppSpie() {
    80002ad8:	ff010113          	addi	sp,sp,-16
    80002adc:	00813423          	sd	s0,8(sp)
    80002ae0:	01010413          	addi	s0,sp,16
    __asm__ volatile("csrw sepc, ra");
    80002ae4:	14109073          	csrw	sepc,ra
    __asm__ volatile("sret");
    80002ae8:	10200073          	sret
}
    80002aec:	00813403          	ld	s0,8(sp)
    80002af0:	01010113          	addi	sp,sp,16
    80002af4:	00008067          	ret

0000000080002af8 <_ZN5RiscV22handle_supervisor_trapEv>:

/// interrupt handler
void RiscV::handle_supervisor_trap() {
    80002af8:	fc010113          	addi	sp,sp,-64
    80002afc:	02113c23          	sd	ra,56(sp)
    80002b00:	02813823          	sd	s0,48(sp)
    80002b04:	02913423          	sd	s1,40(sp)
    80002b08:	03213023          	sd	s2,32(sp)
    80002b0c:	04010413          	addi	s0,sp,64
    /// read values from registers
    uint64 syscall_code, a1, a2, a3, a4;
    __asm__ volatile("mv %0, a0" : "=r"(syscall_code));
    80002b10:	00050813          	mv	a6,a0
    __asm__ volatile("mv %0, a1" : "=r"(a1));
    80002b14:	00058513          	mv	a0,a1
    __asm__ volatile("mv %0, a2" : "=r"(a2));
    80002b18:	00060593          	mv	a1,a2
    __asm__ volatile("mv %0, a3" : "=r"(a3));
    80002b1c:	00068613          	mv	a2,a3
    __asm__ volatile("mv %0, a4" : "=r"(a4));
    80002b20:	00070693          	mv	a3,a4
    __asm__ volatile ("csrr %0, scause" : "=r"(scause));
    80002b24:	142027f3          	csrr	a5,scause
    80002b28:	fcf43423          	sd	a5,-56(s0)
    return scause;
    80002b2c:	fc843703          	ld	a4,-56(s0)

    uint64 scause = read_scause();

    /// interrupt caused by Timer
    if (scause == SOFTWARE_INTERRUPT) {
    80002b30:	fff00793          	li	a5,-1
    80002b34:	03f79793          	slli	a5,a5,0x3f
    80002b38:	00178793          	addi	a5,a5,1
    80002b3c:	02f70463          	beq	a4,a5,80002b64 <_ZN5RiscV22handle_supervisor_trapEv+0x6c>
//        }
//        mc_sip(SIP_SSIE);
    }

    /// External interrupt (Console)
    else if (scause == HARDWARE_INTERRUPT) {
    80002b40:	fff00793          	li	a5,-1
    80002b44:	03f79793          	slli	a5,a5,0x3f
    80002b48:	00978793          	addi	a5,a5,9
    80002b4c:	02f70863          	beq	a4,a5,80002b7c <_ZN5RiscV22handle_supervisor_trapEv+0x84>
        console_handler();
    }

    /// illegal instruction
    else if (scause == INVALID_INTERRUPT) {
    80002b50:	00200793          	li	a5,2
    80002b54:	02f70a63          	beq	a4,a5,80002b88 <_ZN5RiscV22handle_supervisor_trapEv+0x90>
        __asm__ volatile("mv a0, %0" : : "r"(val));
        return;
    }

    /// interrupt from supervisor / user mode
    else if (scause == USER_INTERRUPT || scause == SUPERVISOR_INTERRUPT) {
    80002b58:	ff870713          	addi	a4,a4,-8
    80002b5c:	00100793          	li	a5,1
    80002b60:	02e7fa63          	bgeu	a5,a4,80002b94 <_ZN5RiscV22handle_supervisor_trapEv+0x9c>
                break;
        }
        write_sepc(sepc);
        write_sstatus(sstatus);
    }
    80002b64:	03813083          	ld	ra,56(sp)
    80002b68:	03013403          	ld	s0,48(sp)
    80002b6c:	02813483          	ld	s1,40(sp)
    80002b70:	02013903          	ld	s2,32(sp)
    80002b74:	04010113          	addi	sp,sp,64
    80002b78:	00008067          	ret
        console_handler();
    80002b7c:	00006097          	auipc	ra,0x6
    80002b80:	a04080e7          	jalr	-1532(ra) # 80008580 <console_handler>
    80002b84:	fe1ff06f          	j	80002b64 <_ZN5RiscV22handle_supervisor_trapEv+0x6c>
        __asm__ volatile("mv a0, %0" : : "r"(val));
    80002b88:	00100793          	li	a5,1
    80002b8c:	00078513          	mv	a0,a5
        return;
    80002b90:	fd5ff06f          	j	80002b64 <_ZN5RiscV22handle_supervisor_trapEv+0x6c>
    __asm__ volatile ("csrr %0, sepc" : "=r"(sepc));
    80002b94:	141027f3          	csrr	a5,sepc
    80002b98:	fcf43c23          	sd	a5,-40(s0)
    return sepc;
    80002b9c:	fd843483          	ld	s1,-40(s0)
        uint64 sepc = read_sepc() + 4;
    80002ba0:	00448493          	addi	s1,s1,4
    __asm__ volatile ("csrc sstatus, %0" : : "r"(mask));
}

inline uint64 RiscV::read_sstatus() {
    uint64 volatile sstatus;
    __asm__ volatile ("csrr %0, sstatus" : "=r"(sstatus));
    80002ba4:	100027f3          	csrr	a5,sstatus
    80002ba8:	fcf43823          	sd	a5,-48(s0)
    return sstatus;
    80002bac:	fd043903          	ld	s2,-48(s0)
        switch(syscall_code) {
    80002bb0:	01300793          	li	a5,19
    80002bb4:	0307e463          	bltu	a5,a6,80002bdc <_ZN5RiscV22handle_supervisor_trapEv+0xe4>
    80002bb8:	00281813          	slli	a6,a6,0x2
    80002bbc:	00006717          	auipc	a4,0x6
    80002bc0:	46470713          	addi	a4,a4,1124 # 80009020 <CONSOLE_STATUS+0x10>
    80002bc4:	00e80833          	add	a6,a6,a4
    80002bc8:	00082783          	lw	a5,0(a6)
    80002bcc:	00e787b3          	add	a5,a5,a4
    80002bd0:	00078067          	jr	a5
                MemoryAllocator::mem_alloc((size_t) a1);
    80002bd4:	00000097          	auipc	ra,0x0
    80002bd8:	8dc080e7          	jalr	-1828(ra) # 800024b0 <_ZN15MemoryAllocator9mem_allocEm>
    __asm__ volatile ("csrw sepc, %0" : : "r"(val));
    80002bdc:	14149073          	csrw	sepc,s1
}

inline void RiscV::write_sstatus(uint64 val) {
    __asm__ volatile ("csrw sstatus, %0" : : "r"(val));
    80002be0:	10091073          	csrw	sstatus,s2
}
    80002be4:	f81ff06f          	j	80002b64 <_ZN5RiscV22handle_supervisor_trapEv+0x6c>
                MemoryAllocator::mem_free((void *) a1);
    80002be8:	00000097          	auipc	ra,0x0
    80002bec:	ab4080e7          	jalr	-1356(ra) # 8000269c <_ZN15MemoryAllocator8mem_freeEPv>
                break;
    80002bf0:	fedff06f          	j	80002bdc <_ZN5RiscV22handle_supervisor_trapEv+0xe4>
                TCB::thread_create((thread_t *) a1, (void (*)(void *)) a2, (void *) a3, (void *) a4);
    80002bf4:	fffff097          	auipc	ra,0xfffff
    80002bf8:	2d0080e7          	jalr	720(ra) # 80001ec4 <_ZN3TCB13thread_createEPPS_PFvPvES2_S2_>
                break;
    80002bfc:	fe1ff06f          	j	80002bdc <_ZN5RiscV22handle_supervisor_trapEv+0xe4>
                TCB::thread_exit();
    80002c00:	fffff097          	auipc	ra,0xfffff
    80002c04:	1a4080e7          	jalr	420(ra) # 80001da4 <_ZN3TCB11thread_exitEv>
                break;
    80002c08:	fd5ff06f          	j	80002bdc <_ZN5RiscV22handle_supervisor_trapEv+0xe4>
                TCB::dispatch();
    80002c0c:	fffff097          	auipc	ra,0xfffff
    80002c10:	068080e7          	jalr	104(ra) # 80001c74 <_ZN3TCB8dispatchEv>
                break;
    80002c14:	fc9ff06f          	j	80002bdc <_ZN5RiscV22handle_supervisor_trapEv+0xe4>

0000000080002c18 <_ZN10ThreadList9get_firstEv>:
    Node* node = new Node(thread);
    node -> next = head;
    head = node;
}

TCB *ThreadList::get_first() {
    80002c18:	ff010113          	addi	sp,sp,-16
    80002c1c:	00813423          	sd	s0,8(sp)
    80002c20:	01010413          	addi	s0,sp,16
    return (head ? head -> data : nullptr);
    80002c24:	00053503          	ld	a0,0(a0)
    80002c28:	00050463          	beqz	a0,80002c30 <_ZN10ThreadList9get_firstEv+0x18>
    80002c2c:	00053503          	ld	a0,0(a0)
}
    80002c30:	00813403          	ld	s0,8(sp)
    80002c34:	01010113          	addi	sp,sp,16
    80002c38:	00008067          	ret

0000000080002c3c <_ZN10ThreadList4NodenwEm>:

void ThreadList::free() {
    while (get_first()) remove_first();
}

void *ThreadList::Node::operator new(size_t size) {
    80002c3c:	ff010113          	addi	sp,sp,-16
    80002c40:	00113423          	sd	ra,8(sp)
    80002c44:	00813023          	sd	s0,0(sp)
    80002c48:	01010413          	addi	s0,sp,16
    return MemoryAllocator::mem_alloc(MemoryAllocator::get_number_of_blocks(size));
    80002c4c:	00000097          	auipc	ra,0x0
    80002c50:	c60080e7          	jalr	-928(ra) # 800028ac <_ZN15MemoryAllocator20get_number_of_blocksEm>
    80002c54:	00000097          	auipc	ra,0x0
    80002c58:	85c080e7          	jalr	-1956(ra) # 800024b0 <_ZN15MemoryAllocator9mem_allocEm>
}
    80002c5c:	00813083          	ld	ra,8(sp)
    80002c60:	00013403          	ld	s0,0(sp)
    80002c64:	01010113          	addi	sp,sp,16
    80002c68:	00008067          	ret

0000000080002c6c <_ZN10ThreadList9push_backEP3TCB>:
void ThreadList::push_back(TCB *thread) {
    80002c6c:	fe010113          	addi	sp,sp,-32
    80002c70:	00113c23          	sd	ra,24(sp)
    80002c74:	00813823          	sd	s0,16(sp)
    80002c78:	00913423          	sd	s1,8(sp)
    80002c7c:	01213023          	sd	s2,0(sp)
    80002c80:	02010413          	addi	s0,sp,32
    80002c84:	00050493          	mv	s1,a0
    80002c88:	00058913          	mv	s2,a1
    tail = (head ? head : tail -> next) = new Node(thread);
    80002c8c:	01000513          	li	a0,16
    80002c90:	00000097          	auipc	ra,0x0
    80002c94:	fac080e7          	jalr	-84(ra) # 80002c3c <_ZN10ThreadList4NodenwEm>
        struct Node *next;

        void* operator new(size_t size);
        void operator delete(void* addr);

        explicit Node(TCB* data) : data(data), next(nullptr) {}
    80002c98:	01253023          	sd	s2,0(a0)
    80002c9c:	00053423          	sd	zero,8(a0)
    80002ca0:	0004b783          	ld	a5,0(s1)
    80002ca4:	02078263          	beqz	a5,80002cc8 <_ZN10ThreadList9push_backEP3TCB+0x5c>
    80002ca8:	00a4b023          	sd	a0,0(s1)
    80002cac:	00a4b423          	sd	a0,8(s1)
}
    80002cb0:	01813083          	ld	ra,24(sp)
    80002cb4:	01013403          	ld	s0,16(sp)
    80002cb8:	00813483          	ld	s1,8(sp)
    80002cbc:	00013903          	ld	s2,0(sp)
    80002cc0:	02010113          	addi	sp,sp,32
    80002cc4:	00008067          	ret
    tail = (head ? head : tail -> next) = new Node(thread);
    80002cc8:	0084b783          	ld	a5,8(s1)
    80002ccc:	00a7b423          	sd	a0,8(a5)
    80002cd0:	fddff06f          	j	80002cac <_ZN10ThreadList9push_backEP3TCB+0x40>

0000000080002cd4 <_ZN10ThreadList10push_frontEP3TCB>:
void ThreadList::push_front(TCB *thread) {
    80002cd4:	fe010113          	addi	sp,sp,-32
    80002cd8:	00113c23          	sd	ra,24(sp)
    80002cdc:	00813823          	sd	s0,16(sp)
    80002ce0:	00913423          	sd	s1,8(sp)
    80002ce4:	01213023          	sd	s2,0(sp)
    80002ce8:	02010413          	addi	s0,sp,32
    80002cec:	00050493          	mv	s1,a0
    80002cf0:	00058913          	mv	s2,a1
    Node* node = new Node(thread);
    80002cf4:	01000513          	li	a0,16
    80002cf8:	00000097          	auipc	ra,0x0
    80002cfc:	f44080e7          	jalr	-188(ra) # 80002c3c <_ZN10ThreadList4NodenwEm>
    80002d00:	01253023          	sd	s2,0(a0)
    80002d04:	00053423          	sd	zero,8(a0)
    node -> next = head;
    80002d08:	0004b783          	ld	a5,0(s1)
    80002d0c:	00f53423          	sd	a5,8(a0)
    head = node;
    80002d10:	00a4b023          	sd	a0,0(s1)
}
    80002d14:	01813083          	ld	ra,24(sp)
    80002d18:	01013403          	ld	s0,16(sp)
    80002d1c:	00813483          	ld	s1,8(sp)
    80002d20:	00013903          	ld	s2,0(sp)
    80002d24:	02010113          	addi	sp,sp,32
    80002d28:	00008067          	ret

0000000080002d2c <_ZN10ThreadList4NodedlEPv>:

void ThreadList::Node::operator delete(void *addr) {
    80002d2c:	ff010113          	addi	sp,sp,-16
    80002d30:	00113423          	sd	ra,8(sp)
    80002d34:	00813023          	sd	s0,0(sp)
    80002d38:	01010413          	addi	s0,sp,16
    MemoryAllocator::mem_free(addr);
    80002d3c:	00000097          	auipc	ra,0x0
    80002d40:	960080e7          	jalr	-1696(ra) # 8000269c <_ZN15MemoryAllocator8mem_freeEPv>
}
    80002d44:	00813083          	ld	ra,8(sp)
    80002d48:	00013403          	ld	s0,0(sp)
    80002d4c:	01010113          	addi	sp,sp,16
    80002d50:	00008067          	ret

0000000080002d54 <_ZN10ThreadList12remove_firstEv>:
TCB *ThreadList::remove_first() {
    80002d54:	fe010113          	addi	sp,sp,-32
    80002d58:	00113c23          	sd	ra,24(sp)
    80002d5c:	00813823          	sd	s0,16(sp)
    80002d60:	00913423          	sd	s1,8(sp)
    80002d64:	02010413          	addi	s0,sp,32
    80002d68:	00050793          	mv	a5,a0
    if (!head) return nullptr;
    80002d6c:	00053503          	ld	a0,0(a0)
    80002d70:	02050a63          	beqz	a0,80002da4 <_ZN10ThreadList12remove_firstEv+0x50>
    TCB* thread = tmp -> data;
    80002d74:	00053483          	ld	s1,0(a0)
    head = head -> next;
    80002d78:	00853703          	ld	a4,8(a0)
    80002d7c:	00e7b023          	sd	a4,0(a5)
    head -> next = nullptr;
    80002d80:	00073423          	sd	zero,8(a4)
    delete tmp;
    80002d84:	00000097          	auipc	ra,0x0
    80002d88:	fa8080e7          	jalr	-88(ra) # 80002d2c <_ZN10ThreadList4NodedlEPv>
}
    80002d8c:	00048513          	mv	a0,s1
    80002d90:	01813083          	ld	ra,24(sp)
    80002d94:	01013403          	ld	s0,16(sp)
    80002d98:	00813483          	ld	s1,8(sp)
    80002d9c:	02010113          	addi	sp,sp,32
    80002da0:	00008067          	ret
    if (!head) return nullptr;
    80002da4:	00050493          	mv	s1,a0
    80002da8:	fe5ff06f          	j	80002d8c <_ZN10ThreadList12remove_firstEv+0x38>

0000000080002dac <_ZN10ThreadList4freeEv>:
void ThreadList::free() {
    80002dac:	fe010113          	addi	sp,sp,-32
    80002db0:	00113c23          	sd	ra,24(sp)
    80002db4:	00813823          	sd	s0,16(sp)
    80002db8:	00913423          	sd	s1,8(sp)
    80002dbc:	02010413          	addi	s0,sp,32
    80002dc0:	00050493          	mv	s1,a0
    while (get_first()) remove_first();
    80002dc4:	00048513          	mv	a0,s1
    80002dc8:	00000097          	auipc	ra,0x0
    80002dcc:	e50080e7          	jalr	-432(ra) # 80002c18 <_ZN10ThreadList9get_firstEv>
    80002dd0:	00050a63          	beqz	a0,80002de4 <_ZN10ThreadList4freeEv+0x38>
    80002dd4:	00048513          	mv	a0,s1
    80002dd8:	00000097          	auipc	ra,0x0
    80002ddc:	f7c080e7          	jalr	-132(ra) # 80002d54 <_ZN10ThreadList12remove_firstEv>
    80002de0:	fe5ff06f          	j	80002dc4 <_ZN10ThreadList4freeEv+0x18>
}
    80002de4:	01813083          	ld	ra,24(sp)
    80002de8:	01013403          	ld	s0,16(sp)
    80002dec:	00813483          	ld	s1,8(sp)
    80002df0:	02010113          	addi	sp,sp,32
    80002df4:	00008067          	ret

0000000080002df8 <_ZL16producerKeyboardPv>:
    sem_t wait;
};

static volatile int threadEnd = 0;

static void producerKeyboard(void *arg) {
    80002df8:	fe010113          	addi	sp,sp,-32
    80002dfc:	00113c23          	sd	ra,24(sp)
    80002e00:	00813823          	sd	s0,16(sp)
    80002e04:	00913423          	sd	s1,8(sp)
    80002e08:	01213023          	sd	s2,0(sp)
    80002e0c:	02010413          	addi	s0,sp,32
    80002e10:	00050493          	mv	s1,a0
    struct thread_data *data = (struct thread_data *) arg;

    int key;
    int i = 0;
    80002e14:	00000913          	li	s2,0
    80002e18:	00c0006f          	j	80002e24 <_ZL16producerKeyboardPv+0x2c>
    while ((key = getc()) != 0x1b) {
        data->buffer->put(key);
        i++;

        if (i % (10 * data->id) == 0) {
            thread_dispatch();
    80002e1c:	ffffe097          	auipc	ra,0xffffe
    80002e20:	5b0080e7          	jalr	1456(ra) # 800013cc <_Z15thread_dispatchv>
    while ((key = getc()) != 0x1b) {
    80002e24:	ffffe097          	auipc	ra,0xffffe
    80002e28:	6a8080e7          	jalr	1704(ra) # 800014cc <_Z4getcv>
    80002e2c:	0005059b          	sext.w	a1,a0
    80002e30:	01b00793          	li	a5,27
    80002e34:	02f58a63          	beq	a1,a5,80002e68 <_ZL16producerKeyboardPv+0x70>
        data->buffer->put(key);
    80002e38:	0084b503          	ld	a0,8(s1)
    80002e3c:	00003097          	auipc	ra,0x3
    80002e40:	384080e7          	jalr	900(ra) # 800061c0 <_ZN6Buffer3putEi>
        i++;
    80002e44:	0019071b          	addiw	a4,s2,1
    80002e48:	0007091b          	sext.w	s2,a4
        if (i % (10 * data->id) == 0) {
    80002e4c:	0004a683          	lw	a3,0(s1)
    80002e50:	0026979b          	slliw	a5,a3,0x2
    80002e54:	00d787bb          	addw	a5,a5,a3
    80002e58:	0017979b          	slliw	a5,a5,0x1
    80002e5c:	02f767bb          	remw	a5,a4,a5
    80002e60:	fc0792e3          	bnez	a5,80002e24 <_ZL16producerKeyboardPv+0x2c>
    80002e64:	fb9ff06f          	j	80002e1c <_ZL16producerKeyboardPv+0x24>
        }
    }

    threadEnd = 1;
    80002e68:	00100793          	li	a5,1
    80002e6c:	00009717          	auipc	a4,0x9
    80002e70:	a2f72a23          	sw	a5,-1484(a4) # 8000b8a0 <_ZL9threadEnd>
    data->buffer->put('!');
    80002e74:	02100593          	li	a1,33
    80002e78:	0084b503          	ld	a0,8(s1)
    80002e7c:	00003097          	auipc	ra,0x3
    80002e80:	344080e7          	jalr	836(ra) # 800061c0 <_ZN6Buffer3putEi>

    sem_signal(data->wait);
    80002e84:	0104b503          	ld	a0,16(s1)
    80002e88:	ffffe097          	auipc	ra,0xffffe
    80002e8c:	5d4080e7          	jalr	1492(ra) # 8000145c <_Z10sem_signalP3Sem>
}
    80002e90:	01813083          	ld	ra,24(sp)
    80002e94:	01013403          	ld	s0,16(sp)
    80002e98:	00813483          	ld	s1,8(sp)
    80002e9c:	00013903          	ld	s2,0(sp)
    80002ea0:	02010113          	addi	sp,sp,32
    80002ea4:	00008067          	ret

0000000080002ea8 <_ZL8producerPv>:

static void producer(void *arg) {
    80002ea8:	fe010113          	addi	sp,sp,-32
    80002eac:	00113c23          	sd	ra,24(sp)
    80002eb0:	00813823          	sd	s0,16(sp)
    80002eb4:	00913423          	sd	s1,8(sp)
    80002eb8:	01213023          	sd	s2,0(sp)
    80002ebc:	02010413          	addi	s0,sp,32
    80002ec0:	00050493          	mv	s1,a0
    struct thread_data *data = (struct thread_data *) arg;

    int i = 0;
    80002ec4:	00000913          	li	s2,0
    80002ec8:	00c0006f          	j	80002ed4 <_ZL8producerPv+0x2c>
    while (!threadEnd) {
        data->buffer->put(data->id + '0');
        i++;

        if (i % (10 * data->id) == 0) {
            thread_dispatch();
    80002ecc:	ffffe097          	auipc	ra,0xffffe
    80002ed0:	500080e7          	jalr	1280(ra) # 800013cc <_Z15thread_dispatchv>
    while (!threadEnd) {
    80002ed4:	00009797          	auipc	a5,0x9
    80002ed8:	9cc7a783          	lw	a5,-1588(a5) # 8000b8a0 <_ZL9threadEnd>
    80002edc:	02079e63          	bnez	a5,80002f18 <_ZL8producerPv+0x70>
        data->buffer->put(data->id + '0');
    80002ee0:	0004a583          	lw	a1,0(s1)
    80002ee4:	0305859b          	addiw	a1,a1,48
    80002ee8:	0084b503          	ld	a0,8(s1)
    80002eec:	00003097          	auipc	ra,0x3
    80002ef0:	2d4080e7          	jalr	724(ra) # 800061c0 <_ZN6Buffer3putEi>
        i++;
    80002ef4:	0019071b          	addiw	a4,s2,1
    80002ef8:	0007091b          	sext.w	s2,a4
        if (i % (10 * data->id) == 0) {
    80002efc:	0004a683          	lw	a3,0(s1)
    80002f00:	0026979b          	slliw	a5,a3,0x2
    80002f04:	00d787bb          	addw	a5,a5,a3
    80002f08:	0017979b          	slliw	a5,a5,0x1
    80002f0c:	02f767bb          	remw	a5,a4,a5
    80002f10:	fc0792e3          	bnez	a5,80002ed4 <_ZL8producerPv+0x2c>
    80002f14:	fb9ff06f          	j	80002ecc <_ZL8producerPv+0x24>
        }
    }

    sem_signal(data->wait);
    80002f18:	0104b503          	ld	a0,16(s1)
    80002f1c:	ffffe097          	auipc	ra,0xffffe
    80002f20:	540080e7          	jalr	1344(ra) # 8000145c <_Z10sem_signalP3Sem>
}
    80002f24:	01813083          	ld	ra,24(sp)
    80002f28:	01013403          	ld	s0,16(sp)
    80002f2c:	00813483          	ld	s1,8(sp)
    80002f30:	00013903          	ld	s2,0(sp)
    80002f34:	02010113          	addi	sp,sp,32
    80002f38:	00008067          	ret

0000000080002f3c <_ZL8consumerPv>:

static void consumer(void *arg) {
    80002f3c:	fd010113          	addi	sp,sp,-48
    80002f40:	02113423          	sd	ra,40(sp)
    80002f44:	02813023          	sd	s0,32(sp)
    80002f48:	00913c23          	sd	s1,24(sp)
    80002f4c:	01213823          	sd	s2,16(sp)
    80002f50:	01313423          	sd	s3,8(sp)
    80002f54:	03010413          	addi	s0,sp,48
    80002f58:	00050913          	mv	s2,a0
    struct thread_data *data = (struct thread_data *) arg;

    int i = 0;
    80002f5c:	00000993          	li	s3,0
    80002f60:	01c0006f          	j	80002f7c <_ZL8consumerPv+0x40>
        i++;

        putc(key);

        if (i % (5 * data->id) == 0) {
            thread_dispatch();
    80002f64:	ffffe097          	auipc	ra,0xffffe
    80002f68:	468080e7          	jalr	1128(ra) # 800013cc <_Z15thread_dispatchv>
    80002f6c:	0500006f          	j	80002fbc <_ZL8consumerPv+0x80>
        }

        if (i % 80 == 0) {
            putc('\n');
    80002f70:	00a00513          	li	a0,10
    80002f74:	ffffe097          	auipc	ra,0xffffe
    80002f78:	5a4080e7          	jalr	1444(ra) # 80001518 <_Z4putcc>
    while (!threadEnd) {
    80002f7c:	00009797          	auipc	a5,0x9
    80002f80:	9247a783          	lw	a5,-1756(a5) # 8000b8a0 <_ZL9threadEnd>
    80002f84:	06079063          	bnez	a5,80002fe4 <_ZL8consumerPv+0xa8>
        int key = data->buffer->get();
    80002f88:	00893503          	ld	a0,8(s2)
    80002f8c:	00003097          	auipc	ra,0x3
    80002f90:	2c4080e7          	jalr	708(ra) # 80006250 <_ZN6Buffer3getEv>
        i++;
    80002f94:	0019849b          	addiw	s1,s3,1
    80002f98:	0004899b          	sext.w	s3,s1
        putc(key);
    80002f9c:	0ff57513          	andi	a0,a0,255
    80002fa0:	ffffe097          	auipc	ra,0xffffe
    80002fa4:	578080e7          	jalr	1400(ra) # 80001518 <_Z4putcc>
        if (i % (5 * data->id) == 0) {
    80002fa8:	00092703          	lw	a4,0(s2)
    80002fac:	0027179b          	slliw	a5,a4,0x2
    80002fb0:	00e787bb          	addw	a5,a5,a4
    80002fb4:	02f4e7bb          	remw	a5,s1,a5
    80002fb8:	fa0786e3          	beqz	a5,80002f64 <_ZL8consumerPv+0x28>
        if (i % 80 == 0) {
    80002fbc:	05000793          	li	a5,80
    80002fc0:	02f4e4bb          	remw	s1,s1,a5
    80002fc4:	fa049ce3          	bnez	s1,80002f7c <_ZL8consumerPv+0x40>
    80002fc8:	fa9ff06f          	j	80002f70 <_ZL8consumerPv+0x34>
        }
    }

    while (data->buffer->getCnt() > 0) {
        int key = data->buffer->get();
    80002fcc:	00893503          	ld	a0,8(s2)
    80002fd0:	00003097          	auipc	ra,0x3
    80002fd4:	280080e7          	jalr	640(ra) # 80006250 <_ZN6Buffer3getEv>
        putc(key);
    80002fd8:	0ff57513          	andi	a0,a0,255
    80002fdc:	ffffe097          	auipc	ra,0xffffe
    80002fe0:	53c080e7          	jalr	1340(ra) # 80001518 <_Z4putcc>
    while (data->buffer->getCnt() > 0) {
    80002fe4:	00893503          	ld	a0,8(s2)
    80002fe8:	00003097          	auipc	ra,0x3
    80002fec:	2f4080e7          	jalr	756(ra) # 800062dc <_ZN6Buffer6getCntEv>
    80002ff0:	fca04ee3          	bgtz	a0,80002fcc <_ZL8consumerPv+0x90>
    }

    sem_signal(data->wait);
    80002ff4:	01093503          	ld	a0,16(s2)
    80002ff8:	ffffe097          	auipc	ra,0xffffe
    80002ffc:	464080e7          	jalr	1124(ra) # 8000145c <_Z10sem_signalP3Sem>
}
    80003000:	02813083          	ld	ra,40(sp)
    80003004:	02013403          	ld	s0,32(sp)
    80003008:	01813483          	ld	s1,24(sp)
    8000300c:	01013903          	ld	s2,16(sp)
    80003010:	00813983          	ld	s3,8(sp)
    80003014:	03010113          	addi	sp,sp,48
    80003018:	00008067          	ret

000000008000301c <_Z22producerConsumer_C_APIv>:

void producerConsumer_C_API() {
    8000301c:	f9010113          	addi	sp,sp,-112
    80003020:	06113423          	sd	ra,104(sp)
    80003024:	06813023          	sd	s0,96(sp)
    80003028:	04913c23          	sd	s1,88(sp)
    8000302c:	05213823          	sd	s2,80(sp)
    80003030:	05313423          	sd	s3,72(sp)
    80003034:	05413023          	sd	s4,64(sp)
    80003038:	03513c23          	sd	s5,56(sp)
    8000303c:	03613823          	sd	s6,48(sp)
    80003040:	07010413          	addi	s0,sp,112
        sem_wait(waitForAll);
    }

    sem_close(waitForAll);

    delete buffer;
    80003044:	00010b13          	mv	s6,sp
    printString("Unesite broj proizvodjaca?\n");
    80003048:	00006517          	auipc	a0,0x6
    8000304c:	02850513          	addi	a0,a0,40 # 80009070 <CONSOLE_STATUS+0x60>
    80003050:	00002097          	auipc	ra,0x2
    80003054:	220080e7          	jalr	544(ra) # 80005270 <_Z11printStringPKc>
    getString(input, 30);
    80003058:	01e00593          	li	a1,30
    8000305c:	fa040493          	addi	s1,s0,-96
    80003060:	00048513          	mv	a0,s1
    80003064:	00002097          	auipc	ra,0x2
    80003068:	294080e7          	jalr	660(ra) # 800052f8 <_Z9getStringPci>
    threadNum = stringToInt(input);
    8000306c:	00048513          	mv	a0,s1
    80003070:	00002097          	auipc	ra,0x2
    80003074:	360080e7          	jalr	864(ra) # 800053d0 <_Z11stringToIntPKc>
    80003078:	00050913          	mv	s2,a0
    printString("Unesite velicinu bafera?\n");
    8000307c:	00006517          	auipc	a0,0x6
    80003080:	01450513          	addi	a0,a0,20 # 80009090 <CONSOLE_STATUS+0x80>
    80003084:	00002097          	auipc	ra,0x2
    80003088:	1ec080e7          	jalr	492(ra) # 80005270 <_Z11printStringPKc>
    getString(input, 30);
    8000308c:	01e00593          	li	a1,30
    80003090:	00048513          	mv	a0,s1
    80003094:	00002097          	auipc	ra,0x2
    80003098:	264080e7          	jalr	612(ra) # 800052f8 <_Z9getStringPci>
    n = stringToInt(input);
    8000309c:	00048513          	mv	a0,s1
    800030a0:	00002097          	auipc	ra,0x2
    800030a4:	330080e7          	jalr	816(ra) # 800053d0 <_Z11stringToIntPKc>
    800030a8:	00050493          	mv	s1,a0
    printString("Broj proizvodjaca "); printInt(threadNum);
    800030ac:	00006517          	auipc	a0,0x6
    800030b0:	00450513          	addi	a0,a0,4 # 800090b0 <CONSOLE_STATUS+0xa0>
    800030b4:	00002097          	auipc	ra,0x2
    800030b8:	1bc080e7          	jalr	444(ra) # 80005270 <_Z11printStringPKc>
    800030bc:	00000613          	li	a2,0
    800030c0:	00a00593          	li	a1,10
    800030c4:	00090513          	mv	a0,s2
    800030c8:	00002097          	auipc	ra,0x2
    800030cc:	358080e7          	jalr	856(ra) # 80005420 <_Z8printIntiii>
    printString(" i velicina bafera "); printInt(n);
    800030d0:	00006517          	auipc	a0,0x6
    800030d4:	ff850513          	addi	a0,a0,-8 # 800090c8 <CONSOLE_STATUS+0xb8>
    800030d8:	00002097          	auipc	ra,0x2
    800030dc:	198080e7          	jalr	408(ra) # 80005270 <_Z11printStringPKc>
    800030e0:	00000613          	li	a2,0
    800030e4:	00a00593          	li	a1,10
    800030e8:	00048513          	mv	a0,s1
    800030ec:	00002097          	auipc	ra,0x2
    800030f0:	334080e7          	jalr	820(ra) # 80005420 <_Z8printIntiii>
    printString(".\n");
    800030f4:	00006517          	auipc	a0,0x6
    800030f8:	fec50513          	addi	a0,a0,-20 # 800090e0 <CONSOLE_STATUS+0xd0>
    800030fc:	00002097          	auipc	ra,0x2
    80003100:	174080e7          	jalr	372(ra) # 80005270 <_Z11printStringPKc>
    if(threadNum > n) {
    80003104:	0324c463          	blt	s1,s2,8000312c <_Z22producerConsumer_C_APIv+0x110>
    } else if (threadNum < 1) {
    80003108:	03205c63          	blez	s2,80003140 <_Z22producerConsumer_C_APIv+0x124>
    Buffer *buffer = new Buffer(n);
    8000310c:	03800513          	li	a0,56
    80003110:	fffff097          	auipc	ra,0xfffff
    80003114:	f68080e7          	jalr	-152(ra) # 80002078 <_Znwm>
    80003118:	00050a13          	mv	s4,a0
    8000311c:	00048593          	mv	a1,s1
    80003120:	00003097          	auipc	ra,0x3
    80003124:	004080e7          	jalr	4(ra) # 80006124 <_ZN6BufferC1Ei>
    80003128:	0300006f          	j	80003158 <_Z22producerConsumer_C_APIv+0x13c>
        printString("Broj proizvodjaca ne sme biti manji od velicine bafera!\n");
    8000312c:	00006517          	auipc	a0,0x6
    80003130:	fbc50513          	addi	a0,a0,-68 # 800090e8 <CONSOLE_STATUS+0xd8>
    80003134:	00002097          	auipc	ra,0x2
    80003138:	13c080e7          	jalr	316(ra) # 80005270 <_Z11printStringPKc>
        return;
    8000313c:	0140006f          	j	80003150 <_Z22producerConsumer_C_APIv+0x134>
        printString("Broj proizvodjaca mora biti veci od nula!\n");
    80003140:	00006517          	auipc	a0,0x6
    80003144:	fe850513          	addi	a0,a0,-24 # 80009128 <CONSOLE_STATUS+0x118>
    80003148:	00002097          	auipc	ra,0x2
    8000314c:	128080e7          	jalr	296(ra) # 80005270 <_Z11printStringPKc>
        return;
    80003150:	000b0113          	mv	sp,s6
    80003154:	1500006f          	j	800032a4 <_Z22producerConsumer_C_APIv+0x288>
    sem_open(&waitForAll, 0);
    80003158:	00000593          	li	a1,0
    8000315c:	00008517          	auipc	a0,0x8
    80003160:	74c50513          	addi	a0,a0,1868 # 8000b8a8 <_ZL10waitForAll>
    80003164:	ffffe097          	auipc	ra,0xffffe
    80003168:	2a4080e7          	jalr	676(ra) # 80001408 <_Z8sem_openPP3Semj>
    thread_t threads[threadNum];
    8000316c:	00391793          	slli	a5,s2,0x3
    80003170:	00f78793          	addi	a5,a5,15
    80003174:	ff07f793          	andi	a5,a5,-16
    80003178:	40f10133          	sub	sp,sp,a5
    8000317c:	00010a93          	mv	s5,sp
    struct thread_data data[threadNum + 1];
    80003180:	0019071b          	addiw	a4,s2,1
    80003184:	00171793          	slli	a5,a4,0x1
    80003188:	00e787b3          	add	a5,a5,a4
    8000318c:	00379793          	slli	a5,a5,0x3
    80003190:	00f78793          	addi	a5,a5,15
    80003194:	ff07f793          	andi	a5,a5,-16
    80003198:	40f10133          	sub	sp,sp,a5
    8000319c:	00010993          	mv	s3,sp
    data[threadNum].id = threadNum;
    800031a0:	00191613          	slli	a2,s2,0x1
    800031a4:	012607b3          	add	a5,a2,s2
    800031a8:	00379793          	slli	a5,a5,0x3
    800031ac:	00f987b3          	add	a5,s3,a5
    800031b0:	0127a023          	sw	s2,0(a5)
    data[threadNum].buffer = buffer;
    800031b4:	0147b423          	sd	s4,8(a5)
    data[threadNum].wait = waitForAll;
    800031b8:	00008717          	auipc	a4,0x8
    800031bc:	6f073703          	ld	a4,1776(a4) # 8000b8a8 <_ZL10waitForAll>
    800031c0:	00e7b823          	sd	a4,16(a5)
    thread_create(&consumerThread, consumer, data + threadNum);
    800031c4:	00078613          	mv	a2,a5
    800031c8:	00000597          	auipc	a1,0x0
    800031cc:	d7458593          	addi	a1,a1,-652 # 80002f3c <_ZL8consumerPv>
    800031d0:	f9840513          	addi	a0,s0,-104
    800031d4:	ffffe097          	auipc	ra,0xffffe
    800031d8:	124080e7          	jalr	292(ra) # 800012f8 <_Z13thread_createPP3TCBPFvPvES2_>
    for (int i = 0; i < threadNum; i++) {
    800031dc:	00000493          	li	s1,0
    800031e0:	0280006f          	j	80003208 <_Z22producerConsumer_C_APIv+0x1ec>
        thread_create(threads + i,
    800031e4:	00000597          	auipc	a1,0x0
    800031e8:	c1458593          	addi	a1,a1,-1004 # 80002df8 <_ZL16producerKeyboardPv>
                      data + i);
    800031ec:	00179613          	slli	a2,a5,0x1
    800031f0:	00f60633          	add	a2,a2,a5
    800031f4:	00361613          	slli	a2,a2,0x3
        thread_create(threads + i,
    800031f8:	00c98633          	add	a2,s3,a2
    800031fc:	ffffe097          	auipc	ra,0xffffe
    80003200:	0fc080e7          	jalr	252(ra) # 800012f8 <_Z13thread_createPP3TCBPFvPvES2_>
    for (int i = 0; i < threadNum; i++) {
    80003204:	0014849b          	addiw	s1,s1,1
    80003208:	0524d263          	bge	s1,s2,8000324c <_Z22producerConsumer_C_APIv+0x230>
        data[i].id = i;
    8000320c:	00149793          	slli	a5,s1,0x1
    80003210:	009787b3          	add	a5,a5,s1
    80003214:	00379793          	slli	a5,a5,0x3
    80003218:	00f987b3          	add	a5,s3,a5
    8000321c:	0097a023          	sw	s1,0(a5)
        data[i].buffer = buffer;
    80003220:	0147b423          	sd	s4,8(a5)
        data[i].wait = waitForAll;
    80003224:	00008717          	auipc	a4,0x8
    80003228:	68473703          	ld	a4,1668(a4) # 8000b8a8 <_ZL10waitForAll>
    8000322c:	00e7b823          	sd	a4,16(a5)
        thread_create(threads + i,
    80003230:	00048793          	mv	a5,s1
    80003234:	00349513          	slli	a0,s1,0x3
    80003238:	00aa8533          	add	a0,s5,a0
    8000323c:	fa9054e3          	blez	s1,800031e4 <_Z22producerConsumer_C_APIv+0x1c8>
    80003240:	00000597          	auipc	a1,0x0
    80003244:	c6858593          	addi	a1,a1,-920 # 80002ea8 <_ZL8producerPv>
    80003248:	fa5ff06f          	j	800031ec <_Z22producerConsumer_C_APIv+0x1d0>
    thread_dispatch();
    8000324c:	ffffe097          	auipc	ra,0xffffe
    80003250:	180080e7          	jalr	384(ra) # 800013cc <_Z15thread_dispatchv>
    for (int i = 0; i <= threadNum; i++) {
    80003254:	00000493          	li	s1,0
    80003258:	00994e63          	blt	s2,s1,80003274 <_Z22producerConsumer_C_APIv+0x258>
        sem_wait(waitForAll);
    8000325c:	00008517          	auipc	a0,0x8
    80003260:	64c53503          	ld	a0,1612(a0) # 8000b8a8 <_ZL10waitForAll>
    80003264:	ffffe097          	auipc	ra,0xffffe
    80003268:	1dc080e7          	jalr	476(ra) # 80001440 <_Z8sem_waitP3Sem>
    for (int i = 0; i <= threadNum; i++) {
    8000326c:	0014849b          	addiw	s1,s1,1
    80003270:	fe9ff06f          	j	80003258 <_Z22producerConsumer_C_APIv+0x23c>
    sem_close(waitForAll);
    80003274:	00008517          	auipc	a0,0x8
    80003278:	63453503          	ld	a0,1588(a0) # 8000b8a8 <_ZL10waitForAll>
    8000327c:	ffffe097          	auipc	ra,0xffffe
    80003280:	1a8080e7          	jalr	424(ra) # 80001424 <_Z9sem_closeP3Sem>
    delete buffer;
    80003284:	000a0e63          	beqz	s4,800032a0 <_Z22producerConsumer_C_APIv+0x284>
    80003288:	000a0513          	mv	a0,s4
    8000328c:	00003097          	auipc	ra,0x3
    80003290:	0d8080e7          	jalr	216(ra) # 80006364 <_ZN6BufferD1Ev>
    80003294:	000a0513          	mv	a0,s4
    80003298:	fffff097          	auipc	ra,0xfffff
    8000329c:	e08080e7          	jalr	-504(ra) # 800020a0 <_ZdlPv>
    800032a0:	000b0113          	mv	sp,s6

}
    800032a4:	f9040113          	addi	sp,s0,-112
    800032a8:	06813083          	ld	ra,104(sp)
    800032ac:	06013403          	ld	s0,96(sp)
    800032b0:	05813483          	ld	s1,88(sp)
    800032b4:	05013903          	ld	s2,80(sp)
    800032b8:	04813983          	ld	s3,72(sp)
    800032bc:	04013a03          	ld	s4,64(sp)
    800032c0:	03813a83          	ld	s5,56(sp)
    800032c4:	03013b03          	ld	s6,48(sp)
    800032c8:	07010113          	addi	sp,sp,112
    800032cc:	00008067          	ret
    800032d0:	00050493          	mv	s1,a0
    Buffer *buffer = new Buffer(n);
    800032d4:	000a0513          	mv	a0,s4
    800032d8:	fffff097          	auipc	ra,0xfffff
    800032dc:	dc8080e7          	jalr	-568(ra) # 800020a0 <_ZdlPv>
    800032e0:	00048513          	mv	a0,s1
    800032e4:	00009097          	auipc	ra,0x9
    800032e8:	6d4080e7          	jalr	1748(ra) # 8000c9b8 <_Unwind_Resume>

00000000800032ec <_ZL9fibonaccim>:
static volatile bool finishedA = false;
static volatile bool finishedB = false;
static volatile bool finishedC = false;
static volatile bool finishedD = false;

static uint64 fibonacci(uint64 n) {
    800032ec:	fe010113          	addi	sp,sp,-32
    800032f0:	00113c23          	sd	ra,24(sp)
    800032f4:	00813823          	sd	s0,16(sp)
    800032f8:	00913423          	sd	s1,8(sp)
    800032fc:	01213023          	sd	s2,0(sp)
    80003300:	02010413          	addi	s0,sp,32
    80003304:	00050493          	mv	s1,a0
    if (n == 0 || n == 1) { return n; }
    80003308:	00100793          	li	a5,1
    8000330c:	02a7f863          	bgeu	a5,a0,8000333c <_ZL9fibonaccim+0x50>
    if (n % 10 == 0) { thread_dispatch(); }
    80003310:	00a00793          	li	a5,10
    80003314:	02f577b3          	remu	a5,a0,a5
    80003318:	02078e63          	beqz	a5,80003354 <_ZL9fibonaccim+0x68>
    return fibonacci(n - 1) + fibonacci(n - 2);
    8000331c:	fff48513          	addi	a0,s1,-1
    80003320:	00000097          	auipc	ra,0x0
    80003324:	fcc080e7          	jalr	-52(ra) # 800032ec <_ZL9fibonaccim>
    80003328:	00050913          	mv	s2,a0
    8000332c:	ffe48513          	addi	a0,s1,-2
    80003330:	00000097          	auipc	ra,0x0
    80003334:	fbc080e7          	jalr	-68(ra) # 800032ec <_ZL9fibonaccim>
    80003338:	00a90533          	add	a0,s2,a0
}
    8000333c:	01813083          	ld	ra,24(sp)
    80003340:	01013403          	ld	s0,16(sp)
    80003344:	00813483          	ld	s1,8(sp)
    80003348:	00013903          	ld	s2,0(sp)
    8000334c:	02010113          	addi	sp,sp,32
    80003350:	00008067          	ret
    if (n % 10 == 0) { thread_dispatch(); }
    80003354:	ffffe097          	auipc	ra,0xffffe
    80003358:	078080e7          	jalr	120(ra) # 800013cc <_Z15thread_dispatchv>
    8000335c:	fc1ff06f          	j	8000331c <_ZL9fibonaccim+0x30>

0000000080003360 <_ZN7WorkerA11workerBodyAEPv>:
    void run() override {
        workerBodyD(nullptr);
    }
};

void WorkerA::workerBodyA(void *arg) {
    80003360:	fe010113          	addi	sp,sp,-32
    80003364:	00113c23          	sd	ra,24(sp)
    80003368:	00813823          	sd	s0,16(sp)
    8000336c:	00913423          	sd	s1,8(sp)
    80003370:	01213023          	sd	s2,0(sp)
    80003374:	02010413          	addi	s0,sp,32
    for (uint64 i = 0; i < 10; i++) {
    80003378:	00000913          	li	s2,0
    8000337c:	0380006f          	j	800033b4 <_ZN7WorkerA11workerBodyAEPv+0x54>
        printString("A: i="); printInt(i); printString("\n");
        for (uint64 j = 0; j < 10000; j++) {
            for (uint64 k = 0; k < 30000; k++) { /* busy wait */ }
            thread_dispatch();
    80003380:	ffffe097          	auipc	ra,0xffffe
    80003384:	04c080e7          	jalr	76(ra) # 800013cc <_Z15thread_dispatchv>
        for (uint64 j = 0; j < 10000; j++) {
    80003388:	00148493          	addi	s1,s1,1
    8000338c:	000027b7          	lui	a5,0x2
    80003390:	70f78793          	addi	a5,a5,1807 # 270f <_entry-0x7fffd8f1>
    80003394:	0097ee63          	bltu	a5,s1,800033b0 <_ZN7WorkerA11workerBodyAEPv+0x50>
            for (uint64 k = 0; k < 30000; k++) { /* busy wait */ }
    80003398:	00000713          	li	a4,0
    8000339c:	000077b7          	lui	a5,0x7
    800033a0:	52f78793          	addi	a5,a5,1327 # 752f <_entry-0x7fff8ad1>
    800033a4:	fce7eee3          	bltu	a5,a4,80003380 <_ZN7WorkerA11workerBodyAEPv+0x20>
    800033a8:	00170713          	addi	a4,a4,1
    800033ac:	ff1ff06f          	j	8000339c <_ZN7WorkerA11workerBodyAEPv+0x3c>
    for (uint64 i = 0; i < 10; i++) {
    800033b0:	00190913          	addi	s2,s2,1
    800033b4:	00900793          	li	a5,9
    800033b8:	0527e063          	bltu	a5,s2,800033f8 <_ZN7WorkerA11workerBodyAEPv+0x98>
        printString("A: i="); printInt(i); printString("\n");
    800033bc:	00006517          	auipc	a0,0x6
    800033c0:	d9c50513          	addi	a0,a0,-612 # 80009158 <CONSOLE_STATUS+0x148>
    800033c4:	00002097          	auipc	ra,0x2
    800033c8:	eac080e7          	jalr	-340(ra) # 80005270 <_Z11printStringPKc>
    800033cc:	00000613          	li	a2,0
    800033d0:	00a00593          	li	a1,10
    800033d4:	0009051b          	sext.w	a0,s2
    800033d8:	00002097          	auipc	ra,0x2
    800033dc:	048080e7          	jalr	72(ra) # 80005420 <_Z8printIntiii>
    800033e0:	00006517          	auipc	a0,0x6
    800033e4:	cc850513          	addi	a0,a0,-824 # 800090a8 <CONSOLE_STATUS+0x98>
    800033e8:	00002097          	auipc	ra,0x2
    800033ec:	e88080e7          	jalr	-376(ra) # 80005270 <_Z11printStringPKc>
        for (uint64 j = 0; j < 10000; j++) {
    800033f0:	00000493          	li	s1,0
    800033f4:	f99ff06f          	j	8000338c <_ZN7WorkerA11workerBodyAEPv+0x2c>
        }
    }
    printString("A finished!\n");
    800033f8:	00006517          	auipc	a0,0x6
    800033fc:	d6850513          	addi	a0,a0,-664 # 80009160 <CONSOLE_STATUS+0x150>
    80003400:	00002097          	auipc	ra,0x2
    80003404:	e70080e7          	jalr	-400(ra) # 80005270 <_Z11printStringPKc>
    finishedA = true;
    80003408:	00100793          	li	a5,1
    8000340c:	00008717          	auipc	a4,0x8
    80003410:	4af70223          	sb	a5,1188(a4) # 8000b8b0 <_ZL9finishedA>
}
    80003414:	01813083          	ld	ra,24(sp)
    80003418:	01013403          	ld	s0,16(sp)
    8000341c:	00813483          	ld	s1,8(sp)
    80003420:	00013903          	ld	s2,0(sp)
    80003424:	02010113          	addi	sp,sp,32
    80003428:	00008067          	ret

000000008000342c <_ZN7WorkerB11workerBodyBEPv>:

void WorkerB::workerBodyB(void *arg) {
    8000342c:	fe010113          	addi	sp,sp,-32
    80003430:	00113c23          	sd	ra,24(sp)
    80003434:	00813823          	sd	s0,16(sp)
    80003438:	00913423          	sd	s1,8(sp)
    8000343c:	01213023          	sd	s2,0(sp)
    80003440:	02010413          	addi	s0,sp,32
    for (uint64 i = 0; i < 16; i++) {
    80003444:	00000913          	li	s2,0
    80003448:	0380006f          	j	80003480 <_ZN7WorkerB11workerBodyBEPv+0x54>
        printString("B: i="); printInt(i); printString("\n");
        for (uint64 j = 0; j < 10000; j++) {
            for (uint64 k = 0; k < 30000; k++) { /* busy wait */ }
            thread_dispatch();
    8000344c:	ffffe097          	auipc	ra,0xffffe
    80003450:	f80080e7          	jalr	-128(ra) # 800013cc <_Z15thread_dispatchv>
        for (uint64 j = 0; j < 10000; j++) {
    80003454:	00148493          	addi	s1,s1,1
    80003458:	000027b7          	lui	a5,0x2
    8000345c:	70f78793          	addi	a5,a5,1807 # 270f <_entry-0x7fffd8f1>
    80003460:	0097ee63          	bltu	a5,s1,8000347c <_ZN7WorkerB11workerBodyBEPv+0x50>
            for (uint64 k = 0; k < 30000; k++) { /* busy wait */ }
    80003464:	00000713          	li	a4,0
    80003468:	000077b7          	lui	a5,0x7
    8000346c:	52f78793          	addi	a5,a5,1327 # 752f <_entry-0x7fff8ad1>
    80003470:	fce7eee3          	bltu	a5,a4,8000344c <_ZN7WorkerB11workerBodyBEPv+0x20>
    80003474:	00170713          	addi	a4,a4,1
    80003478:	ff1ff06f          	j	80003468 <_ZN7WorkerB11workerBodyBEPv+0x3c>
    for (uint64 i = 0; i < 16; i++) {
    8000347c:	00190913          	addi	s2,s2,1
    80003480:	00f00793          	li	a5,15
    80003484:	0527e063          	bltu	a5,s2,800034c4 <_ZN7WorkerB11workerBodyBEPv+0x98>
        printString("B: i="); printInt(i); printString("\n");
    80003488:	00006517          	auipc	a0,0x6
    8000348c:	ce850513          	addi	a0,a0,-792 # 80009170 <CONSOLE_STATUS+0x160>
    80003490:	00002097          	auipc	ra,0x2
    80003494:	de0080e7          	jalr	-544(ra) # 80005270 <_Z11printStringPKc>
    80003498:	00000613          	li	a2,0
    8000349c:	00a00593          	li	a1,10
    800034a0:	0009051b          	sext.w	a0,s2
    800034a4:	00002097          	auipc	ra,0x2
    800034a8:	f7c080e7          	jalr	-132(ra) # 80005420 <_Z8printIntiii>
    800034ac:	00006517          	auipc	a0,0x6
    800034b0:	bfc50513          	addi	a0,a0,-1028 # 800090a8 <CONSOLE_STATUS+0x98>
    800034b4:	00002097          	auipc	ra,0x2
    800034b8:	dbc080e7          	jalr	-580(ra) # 80005270 <_Z11printStringPKc>
        for (uint64 j = 0; j < 10000; j++) {
    800034bc:	00000493          	li	s1,0
    800034c0:	f99ff06f          	j	80003458 <_ZN7WorkerB11workerBodyBEPv+0x2c>
        }
    }
    printString("B finished!\n");
    800034c4:	00006517          	auipc	a0,0x6
    800034c8:	cb450513          	addi	a0,a0,-844 # 80009178 <CONSOLE_STATUS+0x168>
    800034cc:	00002097          	auipc	ra,0x2
    800034d0:	da4080e7          	jalr	-604(ra) # 80005270 <_Z11printStringPKc>
    finishedB = true;
    800034d4:	00100793          	li	a5,1
    800034d8:	00008717          	auipc	a4,0x8
    800034dc:	3cf70ca3          	sb	a5,985(a4) # 8000b8b1 <_ZL9finishedB>
    thread_dispatch();
    800034e0:	ffffe097          	auipc	ra,0xffffe
    800034e4:	eec080e7          	jalr	-276(ra) # 800013cc <_Z15thread_dispatchv>
}
    800034e8:	01813083          	ld	ra,24(sp)
    800034ec:	01013403          	ld	s0,16(sp)
    800034f0:	00813483          	ld	s1,8(sp)
    800034f4:	00013903          	ld	s2,0(sp)
    800034f8:	02010113          	addi	sp,sp,32
    800034fc:	00008067          	ret

0000000080003500 <_ZN7WorkerC11workerBodyCEPv>:

void WorkerC::workerBodyC(void *arg) {
    80003500:	fe010113          	addi	sp,sp,-32
    80003504:	00113c23          	sd	ra,24(sp)
    80003508:	00813823          	sd	s0,16(sp)
    8000350c:	00913423          	sd	s1,8(sp)
    80003510:	01213023          	sd	s2,0(sp)
    80003514:	02010413          	addi	s0,sp,32
    uint8 i = 0;
    80003518:	00000493          	li	s1,0
    8000351c:	0400006f          	j	8000355c <_ZN7WorkerC11workerBodyCEPv+0x5c>
    for (; i < 3; i++) {
        printString("C: i="); printInt(i); printString("\n");
    80003520:	00006517          	auipc	a0,0x6
    80003524:	c6850513          	addi	a0,a0,-920 # 80009188 <CONSOLE_STATUS+0x178>
    80003528:	00002097          	auipc	ra,0x2
    8000352c:	d48080e7          	jalr	-696(ra) # 80005270 <_Z11printStringPKc>
    80003530:	00000613          	li	a2,0
    80003534:	00a00593          	li	a1,10
    80003538:	00048513          	mv	a0,s1
    8000353c:	00002097          	auipc	ra,0x2
    80003540:	ee4080e7          	jalr	-284(ra) # 80005420 <_Z8printIntiii>
    80003544:	00006517          	auipc	a0,0x6
    80003548:	b6450513          	addi	a0,a0,-1180 # 800090a8 <CONSOLE_STATUS+0x98>
    8000354c:	00002097          	auipc	ra,0x2
    80003550:	d24080e7          	jalr	-732(ra) # 80005270 <_Z11printStringPKc>
    for (; i < 3; i++) {
    80003554:	0014849b          	addiw	s1,s1,1
    80003558:	0ff4f493          	andi	s1,s1,255
    8000355c:	00200793          	li	a5,2
    80003560:	fc97f0e3          	bgeu	a5,s1,80003520 <_ZN7WorkerC11workerBodyCEPv+0x20>
    }

    printString("C: dispatch\n");
    80003564:	00006517          	auipc	a0,0x6
    80003568:	c2c50513          	addi	a0,a0,-980 # 80009190 <CONSOLE_STATUS+0x180>
    8000356c:	00002097          	auipc	ra,0x2
    80003570:	d04080e7          	jalr	-764(ra) # 80005270 <_Z11printStringPKc>
    __asm__ ("li t1, 7");
    80003574:	00700313          	li	t1,7
    thread_dispatch();
    80003578:	ffffe097          	auipc	ra,0xffffe
    8000357c:	e54080e7          	jalr	-428(ra) # 800013cc <_Z15thread_dispatchv>

    uint64 t1 = 0;
    __asm__ ("mv %[t1], t1" : [t1] "=r"(t1));
    80003580:	00030913          	mv	s2,t1

    printString("C: t1="); printInt(t1); printString("\n");
    80003584:	00006517          	auipc	a0,0x6
    80003588:	c1c50513          	addi	a0,a0,-996 # 800091a0 <CONSOLE_STATUS+0x190>
    8000358c:	00002097          	auipc	ra,0x2
    80003590:	ce4080e7          	jalr	-796(ra) # 80005270 <_Z11printStringPKc>
    80003594:	00000613          	li	a2,0
    80003598:	00a00593          	li	a1,10
    8000359c:	0009051b          	sext.w	a0,s2
    800035a0:	00002097          	auipc	ra,0x2
    800035a4:	e80080e7          	jalr	-384(ra) # 80005420 <_Z8printIntiii>
    800035a8:	00006517          	auipc	a0,0x6
    800035ac:	b0050513          	addi	a0,a0,-1280 # 800090a8 <CONSOLE_STATUS+0x98>
    800035b0:	00002097          	auipc	ra,0x2
    800035b4:	cc0080e7          	jalr	-832(ra) # 80005270 <_Z11printStringPKc>

    uint64 result = fibonacci(12);
    800035b8:	00c00513          	li	a0,12
    800035bc:	00000097          	auipc	ra,0x0
    800035c0:	d30080e7          	jalr	-720(ra) # 800032ec <_ZL9fibonaccim>
    800035c4:	00050913          	mv	s2,a0
    printString("C: fibonaci="); printInt(result); printString("\n");
    800035c8:	00006517          	auipc	a0,0x6
    800035cc:	be050513          	addi	a0,a0,-1056 # 800091a8 <CONSOLE_STATUS+0x198>
    800035d0:	00002097          	auipc	ra,0x2
    800035d4:	ca0080e7          	jalr	-864(ra) # 80005270 <_Z11printStringPKc>
    800035d8:	00000613          	li	a2,0
    800035dc:	00a00593          	li	a1,10
    800035e0:	0009051b          	sext.w	a0,s2
    800035e4:	00002097          	auipc	ra,0x2
    800035e8:	e3c080e7          	jalr	-452(ra) # 80005420 <_Z8printIntiii>
    800035ec:	00006517          	auipc	a0,0x6
    800035f0:	abc50513          	addi	a0,a0,-1348 # 800090a8 <CONSOLE_STATUS+0x98>
    800035f4:	00002097          	auipc	ra,0x2
    800035f8:	c7c080e7          	jalr	-900(ra) # 80005270 <_Z11printStringPKc>
    800035fc:	0400006f          	j	8000363c <_ZN7WorkerC11workerBodyCEPv+0x13c>

    for (; i < 6; i++) {
        printString("C: i="); printInt(i); printString("\n");
    80003600:	00006517          	auipc	a0,0x6
    80003604:	b8850513          	addi	a0,a0,-1144 # 80009188 <CONSOLE_STATUS+0x178>
    80003608:	00002097          	auipc	ra,0x2
    8000360c:	c68080e7          	jalr	-920(ra) # 80005270 <_Z11printStringPKc>
    80003610:	00000613          	li	a2,0
    80003614:	00a00593          	li	a1,10
    80003618:	00048513          	mv	a0,s1
    8000361c:	00002097          	auipc	ra,0x2
    80003620:	e04080e7          	jalr	-508(ra) # 80005420 <_Z8printIntiii>
    80003624:	00006517          	auipc	a0,0x6
    80003628:	a8450513          	addi	a0,a0,-1404 # 800090a8 <CONSOLE_STATUS+0x98>
    8000362c:	00002097          	auipc	ra,0x2
    80003630:	c44080e7          	jalr	-956(ra) # 80005270 <_Z11printStringPKc>
    for (; i < 6; i++) {
    80003634:	0014849b          	addiw	s1,s1,1
    80003638:	0ff4f493          	andi	s1,s1,255
    8000363c:	00500793          	li	a5,5
    80003640:	fc97f0e3          	bgeu	a5,s1,80003600 <_ZN7WorkerC11workerBodyCEPv+0x100>
    }

    printString("A finished!\n");
    80003644:	00006517          	auipc	a0,0x6
    80003648:	b1c50513          	addi	a0,a0,-1252 # 80009160 <CONSOLE_STATUS+0x150>
    8000364c:	00002097          	auipc	ra,0x2
    80003650:	c24080e7          	jalr	-988(ra) # 80005270 <_Z11printStringPKc>
    finishedC = true;
    80003654:	00100793          	li	a5,1
    80003658:	00008717          	auipc	a4,0x8
    8000365c:	24f70d23          	sb	a5,602(a4) # 8000b8b2 <_ZL9finishedC>
    thread_dispatch();
    80003660:	ffffe097          	auipc	ra,0xffffe
    80003664:	d6c080e7          	jalr	-660(ra) # 800013cc <_Z15thread_dispatchv>
}
    80003668:	01813083          	ld	ra,24(sp)
    8000366c:	01013403          	ld	s0,16(sp)
    80003670:	00813483          	ld	s1,8(sp)
    80003674:	00013903          	ld	s2,0(sp)
    80003678:	02010113          	addi	sp,sp,32
    8000367c:	00008067          	ret

0000000080003680 <_ZN7WorkerD11workerBodyDEPv>:

void WorkerD::workerBodyD(void* arg) {
    80003680:	fe010113          	addi	sp,sp,-32
    80003684:	00113c23          	sd	ra,24(sp)
    80003688:	00813823          	sd	s0,16(sp)
    8000368c:	00913423          	sd	s1,8(sp)
    80003690:	01213023          	sd	s2,0(sp)
    80003694:	02010413          	addi	s0,sp,32
    uint8 i = 10;
    80003698:	00a00493          	li	s1,10
    8000369c:	0400006f          	j	800036dc <_ZN7WorkerD11workerBodyDEPv+0x5c>
    for (; i < 13; i++) {
        printString("D: i="); printInt(i); printString("\n");
    800036a0:	00006517          	auipc	a0,0x6
    800036a4:	b1850513          	addi	a0,a0,-1256 # 800091b8 <CONSOLE_STATUS+0x1a8>
    800036a8:	00002097          	auipc	ra,0x2
    800036ac:	bc8080e7          	jalr	-1080(ra) # 80005270 <_Z11printStringPKc>
    800036b0:	00000613          	li	a2,0
    800036b4:	00a00593          	li	a1,10
    800036b8:	00048513          	mv	a0,s1
    800036bc:	00002097          	auipc	ra,0x2
    800036c0:	d64080e7          	jalr	-668(ra) # 80005420 <_Z8printIntiii>
    800036c4:	00006517          	auipc	a0,0x6
    800036c8:	9e450513          	addi	a0,a0,-1564 # 800090a8 <CONSOLE_STATUS+0x98>
    800036cc:	00002097          	auipc	ra,0x2
    800036d0:	ba4080e7          	jalr	-1116(ra) # 80005270 <_Z11printStringPKc>
    for (; i < 13; i++) {
    800036d4:	0014849b          	addiw	s1,s1,1
    800036d8:	0ff4f493          	andi	s1,s1,255
    800036dc:	00c00793          	li	a5,12
    800036e0:	fc97f0e3          	bgeu	a5,s1,800036a0 <_ZN7WorkerD11workerBodyDEPv+0x20>
    }

    printString("D: dispatch\n");
    800036e4:	00006517          	auipc	a0,0x6
    800036e8:	adc50513          	addi	a0,a0,-1316 # 800091c0 <CONSOLE_STATUS+0x1b0>
    800036ec:	00002097          	auipc	ra,0x2
    800036f0:	b84080e7          	jalr	-1148(ra) # 80005270 <_Z11printStringPKc>
    __asm__ ("li t1, 5");
    800036f4:	00500313          	li	t1,5
    thread_dispatch();
    800036f8:	ffffe097          	auipc	ra,0xffffe
    800036fc:	cd4080e7          	jalr	-812(ra) # 800013cc <_Z15thread_dispatchv>

    uint64 result = fibonacci(16);
    80003700:	01000513          	li	a0,16
    80003704:	00000097          	auipc	ra,0x0
    80003708:	be8080e7          	jalr	-1048(ra) # 800032ec <_ZL9fibonaccim>
    8000370c:	00050913          	mv	s2,a0
    printString("D: fibonaci="); printInt(result); printString("\n");
    80003710:	00006517          	auipc	a0,0x6
    80003714:	ac050513          	addi	a0,a0,-1344 # 800091d0 <CONSOLE_STATUS+0x1c0>
    80003718:	00002097          	auipc	ra,0x2
    8000371c:	b58080e7          	jalr	-1192(ra) # 80005270 <_Z11printStringPKc>
    80003720:	00000613          	li	a2,0
    80003724:	00a00593          	li	a1,10
    80003728:	0009051b          	sext.w	a0,s2
    8000372c:	00002097          	auipc	ra,0x2
    80003730:	cf4080e7          	jalr	-780(ra) # 80005420 <_Z8printIntiii>
    80003734:	00006517          	auipc	a0,0x6
    80003738:	97450513          	addi	a0,a0,-1676 # 800090a8 <CONSOLE_STATUS+0x98>
    8000373c:	00002097          	auipc	ra,0x2
    80003740:	b34080e7          	jalr	-1228(ra) # 80005270 <_Z11printStringPKc>
    80003744:	0400006f          	j	80003784 <_ZN7WorkerD11workerBodyDEPv+0x104>

    for (; i < 16; i++) {
        printString("D: i="); printInt(i); printString("\n");
    80003748:	00006517          	auipc	a0,0x6
    8000374c:	a7050513          	addi	a0,a0,-1424 # 800091b8 <CONSOLE_STATUS+0x1a8>
    80003750:	00002097          	auipc	ra,0x2
    80003754:	b20080e7          	jalr	-1248(ra) # 80005270 <_Z11printStringPKc>
    80003758:	00000613          	li	a2,0
    8000375c:	00a00593          	li	a1,10
    80003760:	00048513          	mv	a0,s1
    80003764:	00002097          	auipc	ra,0x2
    80003768:	cbc080e7          	jalr	-836(ra) # 80005420 <_Z8printIntiii>
    8000376c:	00006517          	auipc	a0,0x6
    80003770:	93c50513          	addi	a0,a0,-1732 # 800090a8 <CONSOLE_STATUS+0x98>
    80003774:	00002097          	auipc	ra,0x2
    80003778:	afc080e7          	jalr	-1284(ra) # 80005270 <_Z11printStringPKc>
    for (; i < 16; i++) {
    8000377c:	0014849b          	addiw	s1,s1,1
    80003780:	0ff4f493          	andi	s1,s1,255
    80003784:	00f00793          	li	a5,15
    80003788:	fc97f0e3          	bgeu	a5,s1,80003748 <_ZN7WorkerD11workerBodyDEPv+0xc8>
    }

    printString("D finished!\n");
    8000378c:	00006517          	auipc	a0,0x6
    80003790:	a5450513          	addi	a0,a0,-1452 # 800091e0 <CONSOLE_STATUS+0x1d0>
    80003794:	00002097          	auipc	ra,0x2
    80003798:	adc080e7          	jalr	-1316(ra) # 80005270 <_Z11printStringPKc>
    finishedD = true;
    8000379c:	00100793          	li	a5,1
    800037a0:	00008717          	auipc	a4,0x8
    800037a4:	10f709a3          	sb	a5,275(a4) # 8000b8b3 <_ZL9finishedD>
    thread_dispatch();
    800037a8:	ffffe097          	auipc	ra,0xffffe
    800037ac:	c24080e7          	jalr	-988(ra) # 800013cc <_Z15thread_dispatchv>
}
    800037b0:	01813083          	ld	ra,24(sp)
    800037b4:	01013403          	ld	s0,16(sp)
    800037b8:	00813483          	ld	s1,8(sp)
    800037bc:	00013903          	ld	s2,0(sp)
    800037c0:	02010113          	addi	sp,sp,32
    800037c4:	00008067          	ret

00000000800037c8 <_Z20Threads_CPP_API_testv>:


void Threads_CPP_API_test() {
    800037c8:	fc010113          	addi	sp,sp,-64
    800037cc:	02113c23          	sd	ra,56(sp)
    800037d0:	02813823          	sd	s0,48(sp)
    800037d4:	02913423          	sd	s1,40(sp)
    800037d8:	03213023          	sd	s2,32(sp)
    800037dc:	04010413          	addi	s0,sp,64
    Thread* threads[4];

    threads[0] = new WorkerA();
    800037e0:	02000513          	li	a0,32
    800037e4:	fffff097          	auipc	ra,0xfffff
    800037e8:	894080e7          	jalr	-1900(ra) # 80002078 <_Znwm>
    800037ec:	00050493          	mv	s1,a0
    WorkerA():Thread() {}
    800037f0:	fffff097          	auipc	ra,0xfffff
    800037f4:	a18080e7          	jalr	-1512(ra) # 80002208 <_ZN6ThreadC1Ev>
    800037f8:	00008797          	auipc	a5,0x8
    800037fc:	e3878793          	addi	a5,a5,-456 # 8000b630 <_ZTV7WorkerA+0x10>
    80003800:	00f4b023          	sd	a5,0(s1)
    threads[0] = new WorkerA();
    80003804:	fc943023          	sd	s1,-64(s0)
    printString("ThreadA created\n");
    80003808:	00006517          	auipc	a0,0x6
    8000380c:	9e850513          	addi	a0,a0,-1560 # 800091f0 <CONSOLE_STATUS+0x1e0>
    80003810:	00002097          	auipc	ra,0x2
    80003814:	a60080e7          	jalr	-1440(ra) # 80005270 <_Z11printStringPKc>

    threads[1] = new WorkerB();
    80003818:	02000513          	li	a0,32
    8000381c:	fffff097          	auipc	ra,0xfffff
    80003820:	85c080e7          	jalr	-1956(ra) # 80002078 <_Znwm>
    80003824:	00050493          	mv	s1,a0
    WorkerB():Thread() {}
    80003828:	fffff097          	auipc	ra,0xfffff
    8000382c:	9e0080e7          	jalr	-1568(ra) # 80002208 <_ZN6ThreadC1Ev>
    80003830:	00008797          	auipc	a5,0x8
    80003834:	e2878793          	addi	a5,a5,-472 # 8000b658 <_ZTV7WorkerB+0x10>
    80003838:	00f4b023          	sd	a5,0(s1)
    threads[1] = new WorkerB();
    8000383c:	fc943423          	sd	s1,-56(s0)
    printString("ThreadB created\n");
    80003840:	00006517          	auipc	a0,0x6
    80003844:	9c850513          	addi	a0,a0,-1592 # 80009208 <CONSOLE_STATUS+0x1f8>
    80003848:	00002097          	auipc	ra,0x2
    8000384c:	a28080e7          	jalr	-1496(ra) # 80005270 <_Z11printStringPKc>

    threads[2] = new WorkerC();
    80003850:	02000513          	li	a0,32
    80003854:	fffff097          	auipc	ra,0xfffff
    80003858:	824080e7          	jalr	-2012(ra) # 80002078 <_Znwm>
    8000385c:	00050493          	mv	s1,a0
    WorkerC():Thread() {}
    80003860:	fffff097          	auipc	ra,0xfffff
    80003864:	9a8080e7          	jalr	-1624(ra) # 80002208 <_ZN6ThreadC1Ev>
    80003868:	00008797          	auipc	a5,0x8
    8000386c:	e1878793          	addi	a5,a5,-488 # 8000b680 <_ZTV7WorkerC+0x10>
    80003870:	00f4b023          	sd	a5,0(s1)
    threads[2] = new WorkerC();
    80003874:	fc943823          	sd	s1,-48(s0)
    printString("ThreadC created\n");
    80003878:	00006517          	auipc	a0,0x6
    8000387c:	9a850513          	addi	a0,a0,-1624 # 80009220 <CONSOLE_STATUS+0x210>
    80003880:	00002097          	auipc	ra,0x2
    80003884:	9f0080e7          	jalr	-1552(ra) # 80005270 <_Z11printStringPKc>

    threads[3] = new WorkerD();
    80003888:	02000513          	li	a0,32
    8000388c:	ffffe097          	auipc	ra,0xffffe
    80003890:	7ec080e7          	jalr	2028(ra) # 80002078 <_Znwm>
    80003894:	00050493          	mv	s1,a0
    WorkerD():Thread() {}
    80003898:	fffff097          	auipc	ra,0xfffff
    8000389c:	970080e7          	jalr	-1680(ra) # 80002208 <_ZN6ThreadC1Ev>
    800038a0:	00008797          	auipc	a5,0x8
    800038a4:	e0878793          	addi	a5,a5,-504 # 8000b6a8 <_ZTV7WorkerD+0x10>
    800038a8:	00f4b023          	sd	a5,0(s1)
    threads[3] = new WorkerD();
    800038ac:	fc943c23          	sd	s1,-40(s0)
    printString("ThreadD created\n");
    800038b0:	00006517          	auipc	a0,0x6
    800038b4:	98850513          	addi	a0,a0,-1656 # 80009238 <CONSOLE_STATUS+0x228>
    800038b8:	00002097          	auipc	ra,0x2
    800038bc:	9b8080e7          	jalr	-1608(ra) # 80005270 <_Z11printStringPKc>

    for(int i=0; i<4; i++) {
    800038c0:	00000493          	li	s1,0
    800038c4:	00300793          	li	a5,3
    800038c8:	0297c663          	blt	a5,s1,800038f4 <_Z20Threads_CPP_API_testv+0x12c>
        threads[i]->start();
    800038cc:	00349793          	slli	a5,s1,0x3
    800038d0:	fe040713          	addi	a4,s0,-32
    800038d4:	00f707b3          	add	a5,a4,a5
    800038d8:	fe07b503          	ld	a0,-32(a5)
    800038dc:	fffff097          	auipc	ra,0xfffff
    800038e0:	8a8080e7          	jalr	-1880(ra) # 80002184 <_ZN6Thread5startEv>
    for(int i=0; i<4; i++) {
    800038e4:	0014849b          	addiw	s1,s1,1
    800038e8:	fddff06f          	j	800038c4 <_Z20Threads_CPP_API_testv+0xfc>
    }

    while (!(finishedA && finishedB && finishedC && finishedD)) {
        Thread::dispatch();
    800038ec:	fffff097          	auipc	ra,0xfffff
    800038f0:	8c8080e7          	jalr	-1848(ra) # 800021b4 <_ZN6Thread8dispatchEv>
    while (!(finishedA && finishedB && finishedC && finishedD)) {
    800038f4:	00008797          	auipc	a5,0x8
    800038f8:	fbc7c783          	lbu	a5,-68(a5) # 8000b8b0 <_ZL9finishedA>
    800038fc:	fe0788e3          	beqz	a5,800038ec <_Z20Threads_CPP_API_testv+0x124>
    80003900:	00008797          	auipc	a5,0x8
    80003904:	fb17c783          	lbu	a5,-79(a5) # 8000b8b1 <_ZL9finishedB>
    80003908:	fe0782e3          	beqz	a5,800038ec <_Z20Threads_CPP_API_testv+0x124>
    8000390c:	00008797          	auipc	a5,0x8
    80003910:	fa67c783          	lbu	a5,-90(a5) # 8000b8b2 <_ZL9finishedC>
    80003914:	fc078ce3          	beqz	a5,800038ec <_Z20Threads_CPP_API_testv+0x124>
    80003918:	00008797          	auipc	a5,0x8
    8000391c:	f9b7c783          	lbu	a5,-101(a5) # 8000b8b3 <_ZL9finishedD>
    80003920:	fc0786e3          	beqz	a5,800038ec <_Z20Threads_CPP_API_testv+0x124>
    80003924:	fc040493          	addi	s1,s0,-64
    80003928:	0080006f          	j	80003930 <_Z20Threads_CPP_API_testv+0x168>
    }

    for (auto thread: threads) { delete thread; }
    8000392c:	00848493          	addi	s1,s1,8
    80003930:	fe040793          	addi	a5,s0,-32
    80003934:	08f48663          	beq	s1,a5,800039c0 <_Z20Threads_CPP_API_testv+0x1f8>
    80003938:	0004b503          	ld	a0,0(s1)
    8000393c:	fe0508e3          	beqz	a0,8000392c <_Z20Threads_CPP_API_testv+0x164>
    80003940:	00053783          	ld	a5,0(a0)
    80003944:	0087b783          	ld	a5,8(a5)
    80003948:	000780e7          	jalr	a5
    8000394c:	fe1ff06f          	j	8000392c <_Z20Threads_CPP_API_testv+0x164>
    80003950:	00050913          	mv	s2,a0
    threads[0] = new WorkerA();
    80003954:	00048513          	mv	a0,s1
    80003958:	ffffe097          	auipc	ra,0xffffe
    8000395c:	748080e7          	jalr	1864(ra) # 800020a0 <_ZdlPv>
    80003960:	00090513          	mv	a0,s2
    80003964:	00009097          	auipc	ra,0x9
    80003968:	054080e7          	jalr	84(ra) # 8000c9b8 <_Unwind_Resume>
    8000396c:	00050913          	mv	s2,a0
    threads[1] = new WorkerB();
    80003970:	00048513          	mv	a0,s1
    80003974:	ffffe097          	auipc	ra,0xffffe
    80003978:	72c080e7          	jalr	1836(ra) # 800020a0 <_ZdlPv>
    8000397c:	00090513          	mv	a0,s2
    80003980:	00009097          	auipc	ra,0x9
    80003984:	038080e7          	jalr	56(ra) # 8000c9b8 <_Unwind_Resume>
    80003988:	00050913          	mv	s2,a0
    threads[2] = new WorkerC();
    8000398c:	00048513          	mv	a0,s1
    80003990:	ffffe097          	auipc	ra,0xffffe
    80003994:	710080e7          	jalr	1808(ra) # 800020a0 <_ZdlPv>
    80003998:	00090513          	mv	a0,s2
    8000399c:	00009097          	auipc	ra,0x9
    800039a0:	01c080e7          	jalr	28(ra) # 8000c9b8 <_Unwind_Resume>
    800039a4:	00050913          	mv	s2,a0
    threads[3] = new WorkerD();
    800039a8:	00048513          	mv	a0,s1
    800039ac:	ffffe097          	auipc	ra,0xffffe
    800039b0:	6f4080e7          	jalr	1780(ra) # 800020a0 <_ZdlPv>
    800039b4:	00090513          	mv	a0,s2
    800039b8:	00009097          	auipc	ra,0x9
    800039bc:	000080e7          	jalr	ra # 8000c9b8 <_Unwind_Resume>
}
    800039c0:	03813083          	ld	ra,56(sp)
    800039c4:	03013403          	ld	s0,48(sp)
    800039c8:	02813483          	ld	s1,40(sp)
    800039cc:	02013903          	ld	s2,32(sp)
    800039d0:	04010113          	addi	sp,sp,64
    800039d4:	00008067          	ret

00000000800039d8 <_ZN7WorkerAD1Ev>:
class WorkerA: public Thread {
    800039d8:	ff010113          	addi	sp,sp,-16
    800039dc:	00113423          	sd	ra,8(sp)
    800039e0:	00813023          	sd	s0,0(sp)
    800039e4:	01010413          	addi	s0,sp,16
    800039e8:	00008797          	auipc	a5,0x8
    800039ec:	c4878793          	addi	a5,a5,-952 # 8000b630 <_ZTV7WorkerA+0x10>
    800039f0:	00f53023          	sd	a5,0(a0)
    800039f4:	ffffe097          	auipc	ra,0xffffe
    800039f8:	5ec080e7          	jalr	1516(ra) # 80001fe0 <_ZN6ThreadD1Ev>
    800039fc:	00813083          	ld	ra,8(sp)
    80003a00:	00013403          	ld	s0,0(sp)
    80003a04:	01010113          	addi	sp,sp,16
    80003a08:	00008067          	ret

0000000080003a0c <_ZN7WorkerAD0Ev>:
    80003a0c:	fe010113          	addi	sp,sp,-32
    80003a10:	00113c23          	sd	ra,24(sp)
    80003a14:	00813823          	sd	s0,16(sp)
    80003a18:	00913423          	sd	s1,8(sp)
    80003a1c:	02010413          	addi	s0,sp,32
    80003a20:	00050493          	mv	s1,a0
    80003a24:	00008797          	auipc	a5,0x8
    80003a28:	c0c78793          	addi	a5,a5,-1012 # 8000b630 <_ZTV7WorkerA+0x10>
    80003a2c:	00f53023          	sd	a5,0(a0)
    80003a30:	ffffe097          	auipc	ra,0xffffe
    80003a34:	5b0080e7          	jalr	1456(ra) # 80001fe0 <_ZN6ThreadD1Ev>
    80003a38:	00048513          	mv	a0,s1
    80003a3c:	ffffe097          	auipc	ra,0xffffe
    80003a40:	664080e7          	jalr	1636(ra) # 800020a0 <_ZdlPv>
    80003a44:	01813083          	ld	ra,24(sp)
    80003a48:	01013403          	ld	s0,16(sp)
    80003a4c:	00813483          	ld	s1,8(sp)
    80003a50:	02010113          	addi	sp,sp,32
    80003a54:	00008067          	ret

0000000080003a58 <_ZN7WorkerBD1Ev>:
class WorkerB: public Thread {
    80003a58:	ff010113          	addi	sp,sp,-16
    80003a5c:	00113423          	sd	ra,8(sp)
    80003a60:	00813023          	sd	s0,0(sp)
    80003a64:	01010413          	addi	s0,sp,16
    80003a68:	00008797          	auipc	a5,0x8
    80003a6c:	bf078793          	addi	a5,a5,-1040 # 8000b658 <_ZTV7WorkerB+0x10>
    80003a70:	00f53023          	sd	a5,0(a0)
    80003a74:	ffffe097          	auipc	ra,0xffffe
    80003a78:	56c080e7          	jalr	1388(ra) # 80001fe0 <_ZN6ThreadD1Ev>
    80003a7c:	00813083          	ld	ra,8(sp)
    80003a80:	00013403          	ld	s0,0(sp)
    80003a84:	01010113          	addi	sp,sp,16
    80003a88:	00008067          	ret

0000000080003a8c <_ZN7WorkerBD0Ev>:
    80003a8c:	fe010113          	addi	sp,sp,-32
    80003a90:	00113c23          	sd	ra,24(sp)
    80003a94:	00813823          	sd	s0,16(sp)
    80003a98:	00913423          	sd	s1,8(sp)
    80003a9c:	02010413          	addi	s0,sp,32
    80003aa0:	00050493          	mv	s1,a0
    80003aa4:	00008797          	auipc	a5,0x8
    80003aa8:	bb478793          	addi	a5,a5,-1100 # 8000b658 <_ZTV7WorkerB+0x10>
    80003aac:	00f53023          	sd	a5,0(a0)
    80003ab0:	ffffe097          	auipc	ra,0xffffe
    80003ab4:	530080e7          	jalr	1328(ra) # 80001fe0 <_ZN6ThreadD1Ev>
    80003ab8:	00048513          	mv	a0,s1
    80003abc:	ffffe097          	auipc	ra,0xffffe
    80003ac0:	5e4080e7          	jalr	1508(ra) # 800020a0 <_ZdlPv>
    80003ac4:	01813083          	ld	ra,24(sp)
    80003ac8:	01013403          	ld	s0,16(sp)
    80003acc:	00813483          	ld	s1,8(sp)
    80003ad0:	02010113          	addi	sp,sp,32
    80003ad4:	00008067          	ret

0000000080003ad8 <_ZN7WorkerCD1Ev>:
class WorkerC: public Thread {
    80003ad8:	ff010113          	addi	sp,sp,-16
    80003adc:	00113423          	sd	ra,8(sp)
    80003ae0:	00813023          	sd	s0,0(sp)
    80003ae4:	01010413          	addi	s0,sp,16
    80003ae8:	00008797          	auipc	a5,0x8
    80003aec:	b9878793          	addi	a5,a5,-1128 # 8000b680 <_ZTV7WorkerC+0x10>
    80003af0:	00f53023          	sd	a5,0(a0)
    80003af4:	ffffe097          	auipc	ra,0xffffe
    80003af8:	4ec080e7          	jalr	1260(ra) # 80001fe0 <_ZN6ThreadD1Ev>
    80003afc:	00813083          	ld	ra,8(sp)
    80003b00:	00013403          	ld	s0,0(sp)
    80003b04:	01010113          	addi	sp,sp,16
    80003b08:	00008067          	ret

0000000080003b0c <_ZN7WorkerCD0Ev>:
    80003b0c:	fe010113          	addi	sp,sp,-32
    80003b10:	00113c23          	sd	ra,24(sp)
    80003b14:	00813823          	sd	s0,16(sp)
    80003b18:	00913423          	sd	s1,8(sp)
    80003b1c:	02010413          	addi	s0,sp,32
    80003b20:	00050493          	mv	s1,a0
    80003b24:	00008797          	auipc	a5,0x8
    80003b28:	b5c78793          	addi	a5,a5,-1188 # 8000b680 <_ZTV7WorkerC+0x10>
    80003b2c:	00f53023          	sd	a5,0(a0)
    80003b30:	ffffe097          	auipc	ra,0xffffe
    80003b34:	4b0080e7          	jalr	1200(ra) # 80001fe0 <_ZN6ThreadD1Ev>
    80003b38:	00048513          	mv	a0,s1
    80003b3c:	ffffe097          	auipc	ra,0xffffe
    80003b40:	564080e7          	jalr	1380(ra) # 800020a0 <_ZdlPv>
    80003b44:	01813083          	ld	ra,24(sp)
    80003b48:	01013403          	ld	s0,16(sp)
    80003b4c:	00813483          	ld	s1,8(sp)
    80003b50:	02010113          	addi	sp,sp,32
    80003b54:	00008067          	ret

0000000080003b58 <_ZN7WorkerDD1Ev>:
class WorkerD: public Thread {
    80003b58:	ff010113          	addi	sp,sp,-16
    80003b5c:	00113423          	sd	ra,8(sp)
    80003b60:	00813023          	sd	s0,0(sp)
    80003b64:	01010413          	addi	s0,sp,16
    80003b68:	00008797          	auipc	a5,0x8
    80003b6c:	b4078793          	addi	a5,a5,-1216 # 8000b6a8 <_ZTV7WorkerD+0x10>
    80003b70:	00f53023          	sd	a5,0(a0)
    80003b74:	ffffe097          	auipc	ra,0xffffe
    80003b78:	46c080e7          	jalr	1132(ra) # 80001fe0 <_ZN6ThreadD1Ev>
    80003b7c:	00813083          	ld	ra,8(sp)
    80003b80:	00013403          	ld	s0,0(sp)
    80003b84:	01010113          	addi	sp,sp,16
    80003b88:	00008067          	ret

0000000080003b8c <_ZN7WorkerDD0Ev>:
    80003b8c:	fe010113          	addi	sp,sp,-32
    80003b90:	00113c23          	sd	ra,24(sp)
    80003b94:	00813823          	sd	s0,16(sp)
    80003b98:	00913423          	sd	s1,8(sp)
    80003b9c:	02010413          	addi	s0,sp,32
    80003ba0:	00050493          	mv	s1,a0
    80003ba4:	00008797          	auipc	a5,0x8
    80003ba8:	b0478793          	addi	a5,a5,-1276 # 8000b6a8 <_ZTV7WorkerD+0x10>
    80003bac:	00f53023          	sd	a5,0(a0)
    80003bb0:	ffffe097          	auipc	ra,0xffffe
    80003bb4:	430080e7          	jalr	1072(ra) # 80001fe0 <_ZN6ThreadD1Ev>
    80003bb8:	00048513          	mv	a0,s1
    80003bbc:	ffffe097          	auipc	ra,0xffffe
    80003bc0:	4e4080e7          	jalr	1252(ra) # 800020a0 <_ZdlPv>
    80003bc4:	01813083          	ld	ra,24(sp)
    80003bc8:	01013403          	ld	s0,16(sp)
    80003bcc:	00813483          	ld	s1,8(sp)
    80003bd0:	02010113          	addi	sp,sp,32
    80003bd4:	00008067          	ret

0000000080003bd8 <_ZN7WorkerA3runEv>:
    void run() override {
    80003bd8:	ff010113          	addi	sp,sp,-16
    80003bdc:	00113423          	sd	ra,8(sp)
    80003be0:	00813023          	sd	s0,0(sp)
    80003be4:	01010413          	addi	s0,sp,16
        workerBodyA(nullptr);
    80003be8:	00000593          	li	a1,0
    80003bec:	fffff097          	auipc	ra,0xfffff
    80003bf0:	774080e7          	jalr	1908(ra) # 80003360 <_ZN7WorkerA11workerBodyAEPv>
    }
    80003bf4:	00813083          	ld	ra,8(sp)
    80003bf8:	00013403          	ld	s0,0(sp)
    80003bfc:	01010113          	addi	sp,sp,16
    80003c00:	00008067          	ret

0000000080003c04 <_ZN7WorkerB3runEv>:
    void run() override {
    80003c04:	ff010113          	addi	sp,sp,-16
    80003c08:	00113423          	sd	ra,8(sp)
    80003c0c:	00813023          	sd	s0,0(sp)
    80003c10:	01010413          	addi	s0,sp,16
        workerBodyB(nullptr);
    80003c14:	00000593          	li	a1,0
    80003c18:	00000097          	auipc	ra,0x0
    80003c1c:	814080e7          	jalr	-2028(ra) # 8000342c <_ZN7WorkerB11workerBodyBEPv>
    }
    80003c20:	00813083          	ld	ra,8(sp)
    80003c24:	00013403          	ld	s0,0(sp)
    80003c28:	01010113          	addi	sp,sp,16
    80003c2c:	00008067          	ret

0000000080003c30 <_ZN7WorkerC3runEv>:
    void run() override {
    80003c30:	ff010113          	addi	sp,sp,-16
    80003c34:	00113423          	sd	ra,8(sp)
    80003c38:	00813023          	sd	s0,0(sp)
    80003c3c:	01010413          	addi	s0,sp,16
        workerBodyC(nullptr);
    80003c40:	00000593          	li	a1,0
    80003c44:	00000097          	auipc	ra,0x0
    80003c48:	8bc080e7          	jalr	-1860(ra) # 80003500 <_ZN7WorkerC11workerBodyCEPv>
    }
    80003c4c:	00813083          	ld	ra,8(sp)
    80003c50:	00013403          	ld	s0,0(sp)
    80003c54:	01010113          	addi	sp,sp,16
    80003c58:	00008067          	ret

0000000080003c5c <_ZN7WorkerD3runEv>:
    void run() override {
    80003c5c:	ff010113          	addi	sp,sp,-16
    80003c60:	00113423          	sd	ra,8(sp)
    80003c64:	00813023          	sd	s0,0(sp)
    80003c68:	01010413          	addi	s0,sp,16
        workerBodyD(nullptr);
    80003c6c:	00000593          	li	a1,0
    80003c70:	00000097          	auipc	ra,0x0
    80003c74:	a10080e7          	jalr	-1520(ra) # 80003680 <_ZN7WorkerD11workerBodyDEPv>
    }
    80003c78:	00813083          	ld	ra,8(sp)
    80003c7c:	00013403          	ld	s0,0(sp)
    80003c80:	01010113          	addi	sp,sp,16
    80003c84:	00008067          	ret

0000000080003c88 <_Z20testConsumerProducerv>:

        td->sem->signal();
    }
};

void testConsumerProducer() {
    80003c88:	f8010113          	addi	sp,sp,-128
    80003c8c:	06113c23          	sd	ra,120(sp)
    80003c90:	06813823          	sd	s0,112(sp)
    80003c94:	06913423          	sd	s1,104(sp)
    80003c98:	07213023          	sd	s2,96(sp)
    80003c9c:	05313c23          	sd	s3,88(sp)
    80003ca0:	05413823          	sd	s4,80(sp)
    80003ca4:	05513423          	sd	s5,72(sp)
    80003ca8:	05613023          	sd	s6,64(sp)
    80003cac:	03713c23          	sd	s7,56(sp)
    80003cb0:	03813823          	sd	s8,48(sp)
    80003cb4:	03913423          	sd	s9,40(sp)
    80003cb8:	08010413          	addi	s0,sp,128
    delete waitForAll;
    for (int i = 0; i < threadNum; i++) {
        delete producers[i];
    }
    delete consumer;
    delete buffer;
    80003cbc:	00010c13          	mv	s8,sp
    printString("Unesite broj proizvodjaca?\n");
    80003cc0:	00005517          	auipc	a0,0x5
    80003cc4:	3b050513          	addi	a0,a0,944 # 80009070 <CONSOLE_STATUS+0x60>
    80003cc8:	00001097          	auipc	ra,0x1
    80003ccc:	5a8080e7          	jalr	1448(ra) # 80005270 <_Z11printStringPKc>
    getString(input, 30);
    80003cd0:	01e00593          	li	a1,30
    80003cd4:	f8040493          	addi	s1,s0,-128
    80003cd8:	00048513          	mv	a0,s1
    80003cdc:	00001097          	auipc	ra,0x1
    80003ce0:	61c080e7          	jalr	1564(ra) # 800052f8 <_Z9getStringPci>
    threadNum = stringToInt(input);
    80003ce4:	00048513          	mv	a0,s1
    80003ce8:	00001097          	auipc	ra,0x1
    80003cec:	6e8080e7          	jalr	1768(ra) # 800053d0 <_Z11stringToIntPKc>
    80003cf0:	00050993          	mv	s3,a0
    printString("Unesite velicinu bafera?\n");
    80003cf4:	00005517          	auipc	a0,0x5
    80003cf8:	39c50513          	addi	a0,a0,924 # 80009090 <CONSOLE_STATUS+0x80>
    80003cfc:	00001097          	auipc	ra,0x1
    80003d00:	574080e7          	jalr	1396(ra) # 80005270 <_Z11printStringPKc>
    getString(input, 30);
    80003d04:	01e00593          	li	a1,30
    80003d08:	00048513          	mv	a0,s1
    80003d0c:	00001097          	auipc	ra,0x1
    80003d10:	5ec080e7          	jalr	1516(ra) # 800052f8 <_Z9getStringPci>
    n = stringToInt(input);
    80003d14:	00048513          	mv	a0,s1
    80003d18:	00001097          	auipc	ra,0x1
    80003d1c:	6b8080e7          	jalr	1720(ra) # 800053d0 <_Z11stringToIntPKc>
    80003d20:	00050493          	mv	s1,a0
    printString("Broj proizvodjaca ");
    80003d24:	00005517          	auipc	a0,0x5
    80003d28:	38c50513          	addi	a0,a0,908 # 800090b0 <CONSOLE_STATUS+0xa0>
    80003d2c:	00001097          	auipc	ra,0x1
    80003d30:	544080e7          	jalr	1348(ra) # 80005270 <_Z11printStringPKc>
    printInt(threadNum);
    80003d34:	00000613          	li	a2,0
    80003d38:	00a00593          	li	a1,10
    80003d3c:	00098513          	mv	a0,s3
    80003d40:	00001097          	auipc	ra,0x1
    80003d44:	6e0080e7          	jalr	1760(ra) # 80005420 <_Z8printIntiii>
    printString(" i velicina bafera ");
    80003d48:	00005517          	auipc	a0,0x5
    80003d4c:	38050513          	addi	a0,a0,896 # 800090c8 <CONSOLE_STATUS+0xb8>
    80003d50:	00001097          	auipc	ra,0x1
    80003d54:	520080e7          	jalr	1312(ra) # 80005270 <_Z11printStringPKc>
    printInt(n);
    80003d58:	00000613          	li	a2,0
    80003d5c:	00a00593          	li	a1,10
    80003d60:	00048513          	mv	a0,s1
    80003d64:	00001097          	auipc	ra,0x1
    80003d68:	6bc080e7          	jalr	1724(ra) # 80005420 <_Z8printIntiii>
    printString(".\n");
    80003d6c:	00005517          	auipc	a0,0x5
    80003d70:	37450513          	addi	a0,a0,884 # 800090e0 <CONSOLE_STATUS+0xd0>
    80003d74:	00001097          	auipc	ra,0x1
    80003d78:	4fc080e7          	jalr	1276(ra) # 80005270 <_Z11printStringPKc>
    if (threadNum > n) {
    80003d7c:	0334c463          	blt	s1,s3,80003da4 <_Z20testConsumerProducerv+0x11c>
    } else if (threadNum < 1) {
    80003d80:	03305c63          	blez	s3,80003db8 <_Z20testConsumerProducerv+0x130>
    BufferCPP *buffer = new BufferCPP(n);
    80003d84:	03800513          	li	a0,56
    80003d88:	ffffe097          	auipc	ra,0xffffe
    80003d8c:	2f0080e7          	jalr	752(ra) # 80002078 <_Znwm>
    80003d90:	00050a93          	mv	s5,a0
    80003d94:	00048593          	mv	a1,s1
    80003d98:	00001097          	auipc	ra,0x1
    80003d9c:	7a8080e7          	jalr	1960(ra) # 80005540 <_ZN9BufferCPPC1Ei>
    80003da0:	0300006f          	j	80003dd0 <_Z20testConsumerProducerv+0x148>
        printString("Broj proizvodjaca ne sme biti manji od velicine bafera!\n");
    80003da4:	00005517          	auipc	a0,0x5
    80003da8:	34450513          	addi	a0,a0,836 # 800090e8 <CONSOLE_STATUS+0xd8>
    80003dac:	00001097          	auipc	ra,0x1
    80003db0:	4c4080e7          	jalr	1220(ra) # 80005270 <_Z11printStringPKc>
        return;
    80003db4:	0140006f          	j	80003dc8 <_Z20testConsumerProducerv+0x140>
        printString("Broj proizvodjaca mora biti veci od nula!\n");
    80003db8:	00005517          	auipc	a0,0x5
    80003dbc:	37050513          	addi	a0,a0,880 # 80009128 <CONSOLE_STATUS+0x118>
    80003dc0:	00001097          	auipc	ra,0x1
    80003dc4:	4b0080e7          	jalr	1200(ra) # 80005270 <_Z11printStringPKc>
        return;
    80003dc8:	000c0113          	mv	sp,s8
    80003dcc:	2140006f          	j	80003fe0 <_Z20testConsumerProducerv+0x358>
    waitForAll = new Semaphore(0);
    80003dd0:	01000513          	li	a0,16
    80003dd4:	ffffe097          	auipc	ra,0xffffe
    80003dd8:	2a4080e7          	jalr	676(ra) # 80002078 <_Znwm>
    80003ddc:	00050913          	mv	s2,a0
    80003de0:	00000593          	li	a1,0
    80003de4:	ffffe097          	auipc	ra,0xffffe
    80003de8:	44c080e7          	jalr	1100(ra) # 80002230 <_ZN9SemaphoreC1Ej>
    80003dec:	00008797          	auipc	a5,0x8
    80003df0:	ad27ba23          	sd	s2,-1324(a5) # 8000b8c0 <_ZL10waitForAll>
    Thread *producers[threadNum];
    80003df4:	00399793          	slli	a5,s3,0x3
    80003df8:	00f78793          	addi	a5,a5,15
    80003dfc:	ff07f793          	andi	a5,a5,-16
    80003e00:	40f10133          	sub	sp,sp,a5
    80003e04:	00010a13          	mv	s4,sp
    thread_data threadData[threadNum + 1];
    80003e08:	0019871b          	addiw	a4,s3,1
    80003e0c:	00171793          	slli	a5,a4,0x1
    80003e10:	00e787b3          	add	a5,a5,a4
    80003e14:	00379793          	slli	a5,a5,0x3
    80003e18:	00f78793          	addi	a5,a5,15
    80003e1c:	ff07f793          	andi	a5,a5,-16
    80003e20:	40f10133          	sub	sp,sp,a5
    80003e24:	00010b13          	mv	s6,sp
    threadData[threadNum].id = threadNum;
    80003e28:	00199493          	slli	s1,s3,0x1
    80003e2c:	013484b3          	add	s1,s1,s3
    80003e30:	00349493          	slli	s1,s1,0x3
    80003e34:	009b04b3          	add	s1,s6,s1
    80003e38:	0134a023          	sw	s3,0(s1)
    threadData[threadNum].buffer = buffer;
    80003e3c:	0154b423          	sd	s5,8(s1)
    threadData[threadNum].sem = waitForAll;
    80003e40:	0124b823          	sd	s2,16(s1)
    Thread *consumer = new Consumer(&threadData[threadNum]);
    80003e44:	02800513          	li	a0,40
    80003e48:	ffffe097          	auipc	ra,0xffffe
    80003e4c:	230080e7          	jalr	560(ra) # 80002078 <_Znwm>
    80003e50:	00050b93          	mv	s7,a0
    Consumer(thread_data *_td) : Thread(), td(_td) {}
    80003e54:	ffffe097          	auipc	ra,0xffffe
    80003e58:	3b4080e7          	jalr	948(ra) # 80002208 <_ZN6ThreadC1Ev>
    80003e5c:	00008797          	auipc	a5,0x8
    80003e60:	8c478793          	addi	a5,a5,-1852 # 8000b720 <_ZTV8Consumer+0x10>
    80003e64:	00fbb023          	sd	a5,0(s7)
    80003e68:	029bb023          	sd	s1,32(s7)
    consumer->start();
    80003e6c:	000b8513          	mv	a0,s7
    80003e70:	ffffe097          	auipc	ra,0xffffe
    80003e74:	314080e7          	jalr	788(ra) # 80002184 <_ZN6Thread5startEv>
    threadData[0].id = 0;
    80003e78:	000b2023          	sw	zero,0(s6)
    threadData[0].buffer = buffer;
    80003e7c:	015b3423          	sd	s5,8(s6)
    threadData[0].sem = waitForAll;
    80003e80:	00008797          	auipc	a5,0x8
    80003e84:	a407b783          	ld	a5,-1472(a5) # 8000b8c0 <_ZL10waitForAll>
    80003e88:	00fb3823          	sd	a5,16(s6)
    producers[0] = new ProducerKeyborad(&threadData[0]);
    80003e8c:	02800513          	li	a0,40
    80003e90:	ffffe097          	auipc	ra,0xffffe
    80003e94:	1e8080e7          	jalr	488(ra) # 80002078 <_Znwm>
    80003e98:	00050493          	mv	s1,a0
    ProducerKeyborad(thread_data *_td) : Thread(), td(_td) {}
    80003e9c:	ffffe097          	auipc	ra,0xffffe
    80003ea0:	36c080e7          	jalr	876(ra) # 80002208 <_ZN6ThreadC1Ev>
    80003ea4:	00008797          	auipc	a5,0x8
    80003ea8:	82c78793          	addi	a5,a5,-2004 # 8000b6d0 <_ZTV16ProducerKeyborad+0x10>
    80003eac:	00f4b023          	sd	a5,0(s1)
    80003eb0:	0364b023          	sd	s6,32(s1)
    producers[0] = new ProducerKeyborad(&threadData[0]);
    80003eb4:	009a3023          	sd	s1,0(s4)
    producers[0]->start();
    80003eb8:	00048513          	mv	a0,s1
    80003ebc:	ffffe097          	auipc	ra,0xffffe
    80003ec0:	2c8080e7          	jalr	712(ra) # 80002184 <_ZN6Thread5startEv>
    for (int i = 1; i < threadNum; i++) {
    80003ec4:	00100913          	li	s2,1
    80003ec8:	0300006f          	j	80003ef8 <_Z20testConsumerProducerv+0x270>
    Producer(thread_data *_td) : Thread(), td(_td) {}
    80003ecc:	00008797          	auipc	a5,0x8
    80003ed0:	82c78793          	addi	a5,a5,-2004 # 8000b6f8 <_ZTV8Producer+0x10>
    80003ed4:	00fcb023          	sd	a5,0(s9)
    80003ed8:	029cb023          	sd	s1,32(s9)
        producers[i] = new Producer(&threadData[i]);
    80003edc:	00391793          	slli	a5,s2,0x3
    80003ee0:	00fa07b3          	add	a5,s4,a5
    80003ee4:	0197b023          	sd	s9,0(a5)
        producers[i]->start();
    80003ee8:	000c8513          	mv	a0,s9
    80003eec:	ffffe097          	auipc	ra,0xffffe
    80003ef0:	298080e7          	jalr	664(ra) # 80002184 <_ZN6Thread5startEv>
    for (int i = 1; i < threadNum; i++) {
    80003ef4:	0019091b          	addiw	s2,s2,1
    80003ef8:	05395263          	bge	s2,s3,80003f3c <_Z20testConsumerProducerv+0x2b4>
        threadData[i].id = i;
    80003efc:	00191493          	slli	s1,s2,0x1
    80003f00:	012484b3          	add	s1,s1,s2
    80003f04:	00349493          	slli	s1,s1,0x3
    80003f08:	009b04b3          	add	s1,s6,s1
    80003f0c:	0124a023          	sw	s2,0(s1)
        threadData[i].buffer = buffer;
    80003f10:	0154b423          	sd	s5,8(s1)
        threadData[i].sem = waitForAll;
    80003f14:	00008797          	auipc	a5,0x8
    80003f18:	9ac7b783          	ld	a5,-1620(a5) # 8000b8c0 <_ZL10waitForAll>
    80003f1c:	00f4b823          	sd	a5,16(s1)
        producers[i] = new Producer(&threadData[i]);
    80003f20:	02800513          	li	a0,40
    80003f24:	ffffe097          	auipc	ra,0xffffe
    80003f28:	154080e7          	jalr	340(ra) # 80002078 <_Znwm>
    80003f2c:	00050c93          	mv	s9,a0
    Producer(thread_data *_td) : Thread(), td(_td) {}
    80003f30:	ffffe097          	auipc	ra,0xffffe
    80003f34:	2d8080e7          	jalr	728(ra) # 80002208 <_ZN6ThreadC1Ev>
    80003f38:	f95ff06f          	j	80003ecc <_Z20testConsumerProducerv+0x244>
    Thread::dispatch();
    80003f3c:	ffffe097          	auipc	ra,0xffffe
    80003f40:	278080e7          	jalr	632(ra) # 800021b4 <_ZN6Thread8dispatchEv>
    for (int i = 0; i <= threadNum; i++) {
    80003f44:	00000493          	li	s1,0
    80003f48:	0099ce63          	blt	s3,s1,80003f64 <_Z20testConsumerProducerv+0x2dc>
        waitForAll->wait();
    80003f4c:	00008517          	auipc	a0,0x8
    80003f50:	97453503          	ld	a0,-1676(a0) # 8000b8c0 <_ZL10waitForAll>
    80003f54:	ffffe097          	auipc	ra,0xffffe
    80003f58:	318080e7          	jalr	792(ra) # 8000226c <_ZN9Semaphore4waitEv>
    for (int i = 0; i <= threadNum; i++) {
    80003f5c:	0014849b          	addiw	s1,s1,1
    80003f60:	fe9ff06f          	j	80003f48 <_Z20testConsumerProducerv+0x2c0>
    delete waitForAll;
    80003f64:	00008517          	auipc	a0,0x8
    80003f68:	95c53503          	ld	a0,-1700(a0) # 8000b8c0 <_ZL10waitForAll>
    80003f6c:	00050863          	beqz	a0,80003f7c <_Z20testConsumerProducerv+0x2f4>
    80003f70:	00053783          	ld	a5,0(a0)
    80003f74:	0087b783          	ld	a5,8(a5)
    80003f78:	000780e7          	jalr	a5
    for (int i = 0; i <= threadNum; i++) {
    80003f7c:	00000493          	li	s1,0
    80003f80:	0080006f          	j	80003f88 <_Z20testConsumerProducerv+0x300>
    for (int i = 0; i < threadNum; i++) {
    80003f84:	0014849b          	addiw	s1,s1,1
    80003f88:	0334d263          	bge	s1,s3,80003fac <_Z20testConsumerProducerv+0x324>
        delete producers[i];
    80003f8c:	00349793          	slli	a5,s1,0x3
    80003f90:	00fa07b3          	add	a5,s4,a5
    80003f94:	0007b503          	ld	a0,0(a5)
    80003f98:	fe0506e3          	beqz	a0,80003f84 <_Z20testConsumerProducerv+0x2fc>
    80003f9c:	00053783          	ld	a5,0(a0)
    80003fa0:	0087b783          	ld	a5,8(a5)
    80003fa4:	000780e7          	jalr	a5
    80003fa8:	fddff06f          	j	80003f84 <_Z20testConsumerProducerv+0x2fc>
    delete consumer;
    80003fac:	000b8a63          	beqz	s7,80003fc0 <_Z20testConsumerProducerv+0x338>
    80003fb0:	000bb783          	ld	a5,0(s7)
    80003fb4:	0087b783          	ld	a5,8(a5)
    80003fb8:	000b8513          	mv	a0,s7
    80003fbc:	000780e7          	jalr	a5
    delete buffer;
    80003fc0:	000a8e63          	beqz	s5,80003fdc <_Z20testConsumerProducerv+0x354>
    80003fc4:	000a8513          	mv	a0,s5
    80003fc8:	00002097          	auipc	ra,0x2
    80003fcc:	870080e7          	jalr	-1936(ra) # 80005838 <_ZN9BufferCPPD1Ev>
    80003fd0:	000a8513          	mv	a0,s5
    80003fd4:	ffffe097          	auipc	ra,0xffffe
    80003fd8:	0cc080e7          	jalr	204(ra) # 800020a0 <_ZdlPv>
    80003fdc:	000c0113          	mv	sp,s8
}
    80003fe0:	f8040113          	addi	sp,s0,-128
    80003fe4:	07813083          	ld	ra,120(sp)
    80003fe8:	07013403          	ld	s0,112(sp)
    80003fec:	06813483          	ld	s1,104(sp)
    80003ff0:	06013903          	ld	s2,96(sp)
    80003ff4:	05813983          	ld	s3,88(sp)
    80003ff8:	05013a03          	ld	s4,80(sp)
    80003ffc:	04813a83          	ld	s5,72(sp)
    80004000:	04013b03          	ld	s6,64(sp)
    80004004:	03813b83          	ld	s7,56(sp)
    80004008:	03013c03          	ld	s8,48(sp)
    8000400c:	02813c83          	ld	s9,40(sp)
    80004010:	08010113          	addi	sp,sp,128
    80004014:	00008067          	ret
    80004018:	00050493          	mv	s1,a0
    BufferCPP *buffer = new BufferCPP(n);
    8000401c:	000a8513          	mv	a0,s5
    80004020:	ffffe097          	auipc	ra,0xffffe
    80004024:	080080e7          	jalr	128(ra) # 800020a0 <_ZdlPv>
    80004028:	00048513          	mv	a0,s1
    8000402c:	00009097          	auipc	ra,0x9
    80004030:	98c080e7          	jalr	-1652(ra) # 8000c9b8 <_Unwind_Resume>
    80004034:	00050493          	mv	s1,a0
    waitForAll = new Semaphore(0);
    80004038:	00090513          	mv	a0,s2
    8000403c:	ffffe097          	auipc	ra,0xffffe
    80004040:	064080e7          	jalr	100(ra) # 800020a0 <_ZdlPv>
    80004044:	00048513          	mv	a0,s1
    80004048:	00009097          	auipc	ra,0x9
    8000404c:	970080e7          	jalr	-1680(ra) # 8000c9b8 <_Unwind_Resume>
    80004050:	00050493          	mv	s1,a0
    Thread *consumer = new Consumer(&threadData[threadNum]);
    80004054:	000b8513          	mv	a0,s7
    80004058:	ffffe097          	auipc	ra,0xffffe
    8000405c:	048080e7          	jalr	72(ra) # 800020a0 <_ZdlPv>
    80004060:	00048513          	mv	a0,s1
    80004064:	00009097          	auipc	ra,0x9
    80004068:	954080e7          	jalr	-1708(ra) # 8000c9b8 <_Unwind_Resume>
    8000406c:	00050913          	mv	s2,a0
    producers[0] = new ProducerKeyborad(&threadData[0]);
    80004070:	00048513          	mv	a0,s1
    80004074:	ffffe097          	auipc	ra,0xffffe
    80004078:	02c080e7          	jalr	44(ra) # 800020a0 <_ZdlPv>
    8000407c:	00090513          	mv	a0,s2
    80004080:	00009097          	auipc	ra,0x9
    80004084:	938080e7          	jalr	-1736(ra) # 8000c9b8 <_Unwind_Resume>
    80004088:	00050493          	mv	s1,a0
        producers[i] = new Producer(&threadData[i]);
    8000408c:	000c8513          	mv	a0,s9
    80004090:	ffffe097          	auipc	ra,0xffffe
    80004094:	010080e7          	jalr	16(ra) # 800020a0 <_ZdlPv>
    80004098:	00048513          	mv	a0,s1
    8000409c:	00009097          	auipc	ra,0x9
    800040a0:	91c080e7          	jalr	-1764(ra) # 8000c9b8 <_Unwind_Resume>

00000000800040a4 <_ZN8Consumer3runEv>:
    void run() override {
    800040a4:	fd010113          	addi	sp,sp,-48
    800040a8:	02113423          	sd	ra,40(sp)
    800040ac:	02813023          	sd	s0,32(sp)
    800040b0:	00913c23          	sd	s1,24(sp)
    800040b4:	01213823          	sd	s2,16(sp)
    800040b8:	01313423          	sd	s3,8(sp)
    800040bc:	03010413          	addi	s0,sp,48
    800040c0:	00050913          	mv	s2,a0
        int i = 0;
    800040c4:	00000993          	li	s3,0
    800040c8:	0100006f          	j	800040d8 <_ZN8Consumer3runEv+0x34>
                Console::putc('\n');
    800040cc:	00a00513          	li	a0,10
    800040d0:	ffffe097          	auipc	ra,0xffffe
    800040d4:	2c4080e7          	jalr	708(ra) # 80002394 <_ZN7Console4putcEc>
        while (!threadEnd) {
    800040d8:	00007797          	auipc	a5,0x7
    800040dc:	7e07a783          	lw	a5,2016(a5) # 8000b8b8 <_ZL9threadEnd>
    800040e0:	04079a63          	bnez	a5,80004134 <_ZN8Consumer3runEv+0x90>
            int key = td->buffer->get();
    800040e4:	02093783          	ld	a5,32(s2)
    800040e8:	0087b503          	ld	a0,8(a5)
    800040ec:	00001097          	auipc	ra,0x1
    800040f0:	638080e7          	jalr	1592(ra) # 80005724 <_ZN9BufferCPP3getEv>
            i++;
    800040f4:	0019849b          	addiw	s1,s3,1
    800040f8:	0004899b          	sext.w	s3,s1
            Console::putc(key);
    800040fc:	0ff57513          	andi	a0,a0,255
    80004100:	ffffe097          	auipc	ra,0xffffe
    80004104:	294080e7          	jalr	660(ra) # 80002394 <_ZN7Console4putcEc>
            if (i % 80 == 0) {
    80004108:	05000793          	li	a5,80
    8000410c:	02f4e4bb          	remw	s1,s1,a5
    80004110:	fc0494e3          	bnez	s1,800040d8 <_ZN8Consumer3runEv+0x34>
    80004114:	fb9ff06f          	j	800040cc <_ZN8Consumer3runEv+0x28>
            int key = td->buffer->get();
    80004118:	02093783          	ld	a5,32(s2)
    8000411c:	0087b503          	ld	a0,8(a5)
    80004120:	00001097          	auipc	ra,0x1
    80004124:	604080e7          	jalr	1540(ra) # 80005724 <_ZN9BufferCPP3getEv>
            Console::putc(key);
    80004128:	0ff57513          	andi	a0,a0,255
    8000412c:	ffffe097          	auipc	ra,0xffffe
    80004130:	268080e7          	jalr	616(ra) # 80002394 <_ZN7Console4putcEc>
        while (td->buffer->getCnt() > 0) {
    80004134:	02093783          	ld	a5,32(s2)
    80004138:	0087b503          	ld	a0,8(a5)
    8000413c:	00001097          	auipc	ra,0x1
    80004140:	674080e7          	jalr	1652(ra) # 800057b0 <_ZN9BufferCPP6getCntEv>
    80004144:	fca04ae3          	bgtz	a0,80004118 <_ZN8Consumer3runEv+0x74>
        td->sem->signal();
    80004148:	02093783          	ld	a5,32(s2)
    8000414c:	0107b503          	ld	a0,16(a5)
    80004150:	ffffe097          	auipc	ra,0xffffe
    80004154:	154080e7          	jalr	340(ra) # 800022a4 <_ZN9Semaphore6signalEv>
    }
    80004158:	02813083          	ld	ra,40(sp)
    8000415c:	02013403          	ld	s0,32(sp)
    80004160:	01813483          	ld	s1,24(sp)
    80004164:	01013903          	ld	s2,16(sp)
    80004168:	00813983          	ld	s3,8(sp)
    8000416c:	03010113          	addi	sp,sp,48
    80004170:	00008067          	ret

0000000080004174 <_ZN8ConsumerD1Ev>:
class Consumer : public Thread {
    80004174:	ff010113          	addi	sp,sp,-16
    80004178:	00113423          	sd	ra,8(sp)
    8000417c:	00813023          	sd	s0,0(sp)
    80004180:	01010413          	addi	s0,sp,16
    80004184:	00007797          	auipc	a5,0x7
    80004188:	59c78793          	addi	a5,a5,1436 # 8000b720 <_ZTV8Consumer+0x10>
    8000418c:	00f53023          	sd	a5,0(a0)
    80004190:	ffffe097          	auipc	ra,0xffffe
    80004194:	e50080e7          	jalr	-432(ra) # 80001fe0 <_ZN6ThreadD1Ev>
    80004198:	00813083          	ld	ra,8(sp)
    8000419c:	00013403          	ld	s0,0(sp)
    800041a0:	01010113          	addi	sp,sp,16
    800041a4:	00008067          	ret

00000000800041a8 <_ZN8ConsumerD0Ev>:
    800041a8:	fe010113          	addi	sp,sp,-32
    800041ac:	00113c23          	sd	ra,24(sp)
    800041b0:	00813823          	sd	s0,16(sp)
    800041b4:	00913423          	sd	s1,8(sp)
    800041b8:	02010413          	addi	s0,sp,32
    800041bc:	00050493          	mv	s1,a0
    800041c0:	00007797          	auipc	a5,0x7
    800041c4:	56078793          	addi	a5,a5,1376 # 8000b720 <_ZTV8Consumer+0x10>
    800041c8:	00f53023          	sd	a5,0(a0)
    800041cc:	ffffe097          	auipc	ra,0xffffe
    800041d0:	e14080e7          	jalr	-492(ra) # 80001fe0 <_ZN6ThreadD1Ev>
    800041d4:	00048513          	mv	a0,s1
    800041d8:	ffffe097          	auipc	ra,0xffffe
    800041dc:	ec8080e7          	jalr	-312(ra) # 800020a0 <_ZdlPv>
    800041e0:	01813083          	ld	ra,24(sp)
    800041e4:	01013403          	ld	s0,16(sp)
    800041e8:	00813483          	ld	s1,8(sp)
    800041ec:	02010113          	addi	sp,sp,32
    800041f0:	00008067          	ret

00000000800041f4 <_ZN16ProducerKeyboradD1Ev>:
class ProducerKeyborad : public Thread {
    800041f4:	ff010113          	addi	sp,sp,-16
    800041f8:	00113423          	sd	ra,8(sp)
    800041fc:	00813023          	sd	s0,0(sp)
    80004200:	01010413          	addi	s0,sp,16
    80004204:	00007797          	auipc	a5,0x7
    80004208:	4cc78793          	addi	a5,a5,1228 # 8000b6d0 <_ZTV16ProducerKeyborad+0x10>
    8000420c:	00f53023          	sd	a5,0(a0)
    80004210:	ffffe097          	auipc	ra,0xffffe
    80004214:	dd0080e7          	jalr	-560(ra) # 80001fe0 <_ZN6ThreadD1Ev>
    80004218:	00813083          	ld	ra,8(sp)
    8000421c:	00013403          	ld	s0,0(sp)
    80004220:	01010113          	addi	sp,sp,16
    80004224:	00008067          	ret

0000000080004228 <_ZN16ProducerKeyboradD0Ev>:
    80004228:	fe010113          	addi	sp,sp,-32
    8000422c:	00113c23          	sd	ra,24(sp)
    80004230:	00813823          	sd	s0,16(sp)
    80004234:	00913423          	sd	s1,8(sp)
    80004238:	02010413          	addi	s0,sp,32
    8000423c:	00050493          	mv	s1,a0
    80004240:	00007797          	auipc	a5,0x7
    80004244:	49078793          	addi	a5,a5,1168 # 8000b6d0 <_ZTV16ProducerKeyborad+0x10>
    80004248:	00f53023          	sd	a5,0(a0)
    8000424c:	ffffe097          	auipc	ra,0xffffe
    80004250:	d94080e7          	jalr	-620(ra) # 80001fe0 <_ZN6ThreadD1Ev>
    80004254:	00048513          	mv	a0,s1
    80004258:	ffffe097          	auipc	ra,0xffffe
    8000425c:	e48080e7          	jalr	-440(ra) # 800020a0 <_ZdlPv>
    80004260:	01813083          	ld	ra,24(sp)
    80004264:	01013403          	ld	s0,16(sp)
    80004268:	00813483          	ld	s1,8(sp)
    8000426c:	02010113          	addi	sp,sp,32
    80004270:	00008067          	ret

0000000080004274 <_ZN8ProducerD1Ev>:
class Producer : public Thread {
    80004274:	ff010113          	addi	sp,sp,-16
    80004278:	00113423          	sd	ra,8(sp)
    8000427c:	00813023          	sd	s0,0(sp)
    80004280:	01010413          	addi	s0,sp,16
    80004284:	00007797          	auipc	a5,0x7
    80004288:	47478793          	addi	a5,a5,1140 # 8000b6f8 <_ZTV8Producer+0x10>
    8000428c:	00f53023          	sd	a5,0(a0)
    80004290:	ffffe097          	auipc	ra,0xffffe
    80004294:	d50080e7          	jalr	-688(ra) # 80001fe0 <_ZN6ThreadD1Ev>
    80004298:	00813083          	ld	ra,8(sp)
    8000429c:	00013403          	ld	s0,0(sp)
    800042a0:	01010113          	addi	sp,sp,16
    800042a4:	00008067          	ret

00000000800042a8 <_ZN8ProducerD0Ev>:
    800042a8:	fe010113          	addi	sp,sp,-32
    800042ac:	00113c23          	sd	ra,24(sp)
    800042b0:	00813823          	sd	s0,16(sp)
    800042b4:	00913423          	sd	s1,8(sp)
    800042b8:	02010413          	addi	s0,sp,32
    800042bc:	00050493          	mv	s1,a0
    800042c0:	00007797          	auipc	a5,0x7
    800042c4:	43878793          	addi	a5,a5,1080 # 8000b6f8 <_ZTV8Producer+0x10>
    800042c8:	00f53023          	sd	a5,0(a0)
    800042cc:	ffffe097          	auipc	ra,0xffffe
    800042d0:	d14080e7          	jalr	-748(ra) # 80001fe0 <_ZN6ThreadD1Ev>
    800042d4:	00048513          	mv	a0,s1
    800042d8:	ffffe097          	auipc	ra,0xffffe
    800042dc:	dc8080e7          	jalr	-568(ra) # 800020a0 <_ZdlPv>
    800042e0:	01813083          	ld	ra,24(sp)
    800042e4:	01013403          	ld	s0,16(sp)
    800042e8:	00813483          	ld	s1,8(sp)
    800042ec:	02010113          	addi	sp,sp,32
    800042f0:	00008067          	ret

00000000800042f4 <_ZN16ProducerKeyborad3runEv>:
    void run() override {
    800042f4:	fe010113          	addi	sp,sp,-32
    800042f8:	00113c23          	sd	ra,24(sp)
    800042fc:	00813823          	sd	s0,16(sp)
    80004300:	00913423          	sd	s1,8(sp)
    80004304:	02010413          	addi	s0,sp,32
    80004308:	00050493          	mv	s1,a0
        while ((key = getc()) != 0x1b) {
    8000430c:	ffffd097          	auipc	ra,0xffffd
    80004310:	1c0080e7          	jalr	448(ra) # 800014cc <_Z4getcv>
    80004314:	0005059b          	sext.w	a1,a0
    80004318:	01b00793          	li	a5,27
    8000431c:	00f58c63          	beq	a1,a5,80004334 <_ZN16ProducerKeyborad3runEv+0x40>
            td->buffer->put(key);
    80004320:	0204b783          	ld	a5,32(s1)
    80004324:	0087b503          	ld	a0,8(a5)
    80004328:	00001097          	auipc	ra,0x1
    8000432c:	36c080e7          	jalr	876(ra) # 80005694 <_ZN9BufferCPP3putEi>
        while ((key = getc()) != 0x1b) {
    80004330:	fddff06f          	j	8000430c <_ZN16ProducerKeyborad3runEv+0x18>
        threadEnd = 1;
    80004334:	00100793          	li	a5,1
    80004338:	00007717          	auipc	a4,0x7
    8000433c:	58f72023          	sw	a5,1408(a4) # 8000b8b8 <_ZL9threadEnd>
        td->buffer->put('!');
    80004340:	0204b783          	ld	a5,32(s1)
    80004344:	02100593          	li	a1,33
    80004348:	0087b503          	ld	a0,8(a5)
    8000434c:	00001097          	auipc	ra,0x1
    80004350:	348080e7          	jalr	840(ra) # 80005694 <_ZN9BufferCPP3putEi>
        td->sem->signal();
    80004354:	0204b783          	ld	a5,32(s1)
    80004358:	0107b503          	ld	a0,16(a5)
    8000435c:	ffffe097          	auipc	ra,0xffffe
    80004360:	f48080e7          	jalr	-184(ra) # 800022a4 <_ZN9Semaphore6signalEv>
    }
    80004364:	01813083          	ld	ra,24(sp)
    80004368:	01013403          	ld	s0,16(sp)
    8000436c:	00813483          	ld	s1,8(sp)
    80004370:	02010113          	addi	sp,sp,32
    80004374:	00008067          	ret

0000000080004378 <_ZN8Producer3runEv>:
    void run() override {
    80004378:	fe010113          	addi	sp,sp,-32
    8000437c:	00113c23          	sd	ra,24(sp)
    80004380:	00813823          	sd	s0,16(sp)
    80004384:	00913423          	sd	s1,8(sp)
    80004388:	01213023          	sd	s2,0(sp)
    8000438c:	02010413          	addi	s0,sp,32
    80004390:	00050493          	mv	s1,a0
        int i = 0;
    80004394:	00000913          	li	s2,0
        while (!threadEnd) {
    80004398:	00007797          	auipc	a5,0x7
    8000439c:	5207a783          	lw	a5,1312(a5) # 8000b8b8 <_ZL9threadEnd>
    800043a0:	04079263          	bnez	a5,800043e4 <_ZN8Producer3runEv+0x6c>
            td->buffer->put(td->id + '0');
    800043a4:	0204b783          	ld	a5,32(s1)
    800043a8:	0007a583          	lw	a1,0(a5)
    800043ac:	0305859b          	addiw	a1,a1,48
    800043b0:	0087b503          	ld	a0,8(a5)
    800043b4:	00001097          	auipc	ra,0x1
    800043b8:	2e0080e7          	jalr	736(ra) # 80005694 <_ZN9BufferCPP3putEi>
            i++;
    800043bc:	0019071b          	addiw	a4,s2,1
    800043c0:	0007091b          	sext.w	s2,a4
            Thread::sleep((i + td->id) % 5);
    800043c4:	0204b783          	ld	a5,32(s1)
    800043c8:	0007a783          	lw	a5,0(a5)
    800043cc:	00e787bb          	addw	a5,a5,a4
    800043d0:	00500513          	li	a0,5
    800043d4:	02a7e53b          	remw	a0,a5,a0
    800043d8:	ffffe097          	auipc	ra,0xffffe
    800043dc:	e04080e7          	jalr	-508(ra) # 800021dc <_ZN6Thread5sleepEm>
        while (!threadEnd) {
    800043e0:	fb9ff06f          	j	80004398 <_ZN8Producer3runEv+0x20>
        td->sem->signal();
    800043e4:	0204b783          	ld	a5,32(s1)
    800043e8:	0107b503          	ld	a0,16(a5)
    800043ec:	ffffe097          	auipc	ra,0xffffe
    800043f0:	eb8080e7          	jalr	-328(ra) # 800022a4 <_ZN9Semaphore6signalEv>
    }
    800043f4:	01813083          	ld	ra,24(sp)
    800043f8:	01013403          	ld	s0,16(sp)
    800043fc:	00813483          	ld	s1,8(sp)
    80004400:	00013903          	ld	s2,0(sp)
    80004404:	02010113          	addi	sp,sp,32
    80004408:	00008067          	ret

000000008000440c <_ZL9fibonaccim>:
static volatile bool finishedA = false;
static volatile bool finishedB = false;
static volatile bool finishedC = false;
static volatile bool finishedD = false;

static uint64 fibonacci(uint64 n) {
    8000440c:	fe010113          	addi	sp,sp,-32
    80004410:	00113c23          	sd	ra,24(sp)
    80004414:	00813823          	sd	s0,16(sp)
    80004418:	00913423          	sd	s1,8(sp)
    8000441c:	01213023          	sd	s2,0(sp)
    80004420:	02010413          	addi	s0,sp,32
    80004424:	00050493          	mv	s1,a0
    if (n == 0 || n == 1) { return n; }
    80004428:	00100793          	li	a5,1
    8000442c:	02a7f863          	bgeu	a5,a0,8000445c <_ZL9fibonaccim+0x50>
    if (n % 10 == 0) { thread_dispatch(); }
    80004430:	00a00793          	li	a5,10
    80004434:	02f577b3          	remu	a5,a0,a5
    80004438:	02078e63          	beqz	a5,80004474 <_ZL9fibonaccim+0x68>
    return fibonacci(n - 1) + fibonacci(n - 2);
    8000443c:	fff48513          	addi	a0,s1,-1
    80004440:	00000097          	auipc	ra,0x0
    80004444:	fcc080e7          	jalr	-52(ra) # 8000440c <_ZL9fibonaccim>
    80004448:	00050913          	mv	s2,a0
    8000444c:	ffe48513          	addi	a0,s1,-2
    80004450:	00000097          	auipc	ra,0x0
    80004454:	fbc080e7          	jalr	-68(ra) # 8000440c <_ZL9fibonaccim>
    80004458:	00a90533          	add	a0,s2,a0
}
    8000445c:	01813083          	ld	ra,24(sp)
    80004460:	01013403          	ld	s0,16(sp)
    80004464:	00813483          	ld	s1,8(sp)
    80004468:	00013903          	ld	s2,0(sp)
    8000446c:	02010113          	addi	sp,sp,32
    80004470:	00008067          	ret
    if (n % 10 == 0) { thread_dispatch(); }
    80004474:	ffffd097          	auipc	ra,0xffffd
    80004478:	f58080e7          	jalr	-168(ra) # 800013cc <_Z15thread_dispatchv>
    8000447c:	fc1ff06f          	j	8000443c <_ZL9fibonaccim+0x30>

0000000080004480 <_ZL11workerBodyDPv>:
    printString("A finished!\n");
    finishedC = true;
    thread_dispatch();
}

static void workerBodyD(void* arg) {
    80004480:	fe010113          	addi	sp,sp,-32
    80004484:	00113c23          	sd	ra,24(sp)
    80004488:	00813823          	sd	s0,16(sp)
    8000448c:	00913423          	sd	s1,8(sp)
    80004490:	01213023          	sd	s2,0(sp)
    80004494:	02010413          	addi	s0,sp,32
    uint8 i = 10;
    80004498:	00a00493          	li	s1,10
    8000449c:	0400006f          	j	800044dc <_ZL11workerBodyDPv+0x5c>
    for (; i < 13; i++) {
        printString("D: i="); printInt(i); printString("\n");
    800044a0:	00005517          	auipc	a0,0x5
    800044a4:	d1850513          	addi	a0,a0,-744 # 800091b8 <CONSOLE_STATUS+0x1a8>
    800044a8:	00001097          	auipc	ra,0x1
    800044ac:	dc8080e7          	jalr	-568(ra) # 80005270 <_Z11printStringPKc>
    800044b0:	00000613          	li	a2,0
    800044b4:	00a00593          	li	a1,10
    800044b8:	00048513          	mv	a0,s1
    800044bc:	00001097          	auipc	ra,0x1
    800044c0:	f64080e7          	jalr	-156(ra) # 80005420 <_Z8printIntiii>
    800044c4:	00005517          	auipc	a0,0x5
    800044c8:	be450513          	addi	a0,a0,-1052 # 800090a8 <CONSOLE_STATUS+0x98>
    800044cc:	00001097          	auipc	ra,0x1
    800044d0:	da4080e7          	jalr	-604(ra) # 80005270 <_Z11printStringPKc>
    for (; i < 13; i++) {
    800044d4:	0014849b          	addiw	s1,s1,1
    800044d8:	0ff4f493          	andi	s1,s1,255
    800044dc:	00c00793          	li	a5,12
    800044e0:	fc97f0e3          	bgeu	a5,s1,800044a0 <_ZL11workerBodyDPv+0x20>
    }

    printString("D: dispatch\n");
    800044e4:	00005517          	auipc	a0,0x5
    800044e8:	cdc50513          	addi	a0,a0,-804 # 800091c0 <CONSOLE_STATUS+0x1b0>
    800044ec:	00001097          	auipc	ra,0x1
    800044f0:	d84080e7          	jalr	-636(ra) # 80005270 <_Z11printStringPKc>
    __asm__ ("li t1, 5");
    800044f4:	00500313          	li	t1,5
    thread_dispatch();
    800044f8:	ffffd097          	auipc	ra,0xffffd
    800044fc:	ed4080e7          	jalr	-300(ra) # 800013cc <_Z15thread_dispatchv>

    uint64 result = fibonacci(16);
    80004500:	01000513          	li	a0,16
    80004504:	00000097          	auipc	ra,0x0
    80004508:	f08080e7          	jalr	-248(ra) # 8000440c <_ZL9fibonaccim>
    8000450c:	00050913          	mv	s2,a0
    printString("D: fibonaci="); printInt(result); printString("\n");
    80004510:	00005517          	auipc	a0,0x5
    80004514:	cc050513          	addi	a0,a0,-832 # 800091d0 <CONSOLE_STATUS+0x1c0>
    80004518:	00001097          	auipc	ra,0x1
    8000451c:	d58080e7          	jalr	-680(ra) # 80005270 <_Z11printStringPKc>
    80004520:	00000613          	li	a2,0
    80004524:	00a00593          	li	a1,10
    80004528:	0009051b          	sext.w	a0,s2
    8000452c:	00001097          	auipc	ra,0x1
    80004530:	ef4080e7          	jalr	-268(ra) # 80005420 <_Z8printIntiii>
    80004534:	00005517          	auipc	a0,0x5
    80004538:	b7450513          	addi	a0,a0,-1164 # 800090a8 <CONSOLE_STATUS+0x98>
    8000453c:	00001097          	auipc	ra,0x1
    80004540:	d34080e7          	jalr	-716(ra) # 80005270 <_Z11printStringPKc>
    80004544:	0400006f          	j	80004584 <_ZL11workerBodyDPv+0x104>

    for (; i < 16; i++) {
        printString("D: i="); printInt(i); printString("\n");
    80004548:	00005517          	auipc	a0,0x5
    8000454c:	c7050513          	addi	a0,a0,-912 # 800091b8 <CONSOLE_STATUS+0x1a8>
    80004550:	00001097          	auipc	ra,0x1
    80004554:	d20080e7          	jalr	-736(ra) # 80005270 <_Z11printStringPKc>
    80004558:	00000613          	li	a2,0
    8000455c:	00a00593          	li	a1,10
    80004560:	00048513          	mv	a0,s1
    80004564:	00001097          	auipc	ra,0x1
    80004568:	ebc080e7          	jalr	-324(ra) # 80005420 <_Z8printIntiii>
    8000456c:	00005517          	auipc	a0,0x5
    80004570:	b3c50513          	addi	a0,a0,-1220 # 800090a8 <CONSOLE_STATUS+0x98>
    80004574:	00001097          	auipc	ra,0x1
    80004578:	cfc080e7          	jalr	-772(ra) # 80005270 <_Z11printStringPKc>
    for (; i < 16; i++) {
    8000457c:	0014849b          	addiw	s1,s1,1
    80004580:	0ff4f493          	andi	s1,s1,255
    80004584:	00f00793          	li	a5,15
    80004588:	fc97f0e3          	bgeu	a5,s1,80004548 <_ZL11workerBodyDPv+0xc8>
    }

    printString("D finished!\n");
    8000458c:	00005517          	auipc	a0,0x5
    80004590:	c5450513          	addi	a0,a0,-940 # 800091e0 <CONSOLE_STATUS+0x1d0>
    80004594:	00001097          	auipc	ra,0x1
    80004598:	cdc080e7          	jalr	-804(ra) # 80005270 <_Z11printStringPKc>
    finishedD = true;
    8000459c:	00100793          	li	a5,1
    800045a0:	00007717          	auipc	a4,0x7
    800045a4:	32f70423          	sb	a5,808(a4) # 8000b8c8 <_ZL9finishedD>
    thread_dispatch();
    800045a8:	ffffd097          	auipc	ra,0xffffd
    800045ac:	e24080e7          	jalr	-476(ra) # 800013cc <_Z15thread_dispatchv>
}
    800045b0:	01813083          	ld	ra,24(sp)
    800045b4:	01013403          	ld	s0,16(sp)
    800045b8:	00813483          	ld	s1,8(sp)
    800045bc:	00013903          	ld	s2,0(sp)
    800045c0:	02010113          	addi	sp,sp,32
    800045c4:	00008067          	ret

00000000800045c8 <_ZL11workerBodyCPv>:
static void workerBodyC(void* arg) {
    800045c8:	fe010113          	addi	sp,sp,-32
    800045cc:	00113c23          	sd	ra,24(sp)
    800045d0:	00813823          	sd	s0,16(sp)
    800045d4:	00913423          	sd	s1,8(sp)
    800045d8:	01213023          	sd	s2,0(sp)
    800045dc:	02010413          	addi	s0,sp,32
    uint8 i = 0;
    800045e0:	00000493          	li	s1,0
    800045e4:	0400006f          	j	80004624 <_ZL11workerBodyCPv+0x5c>
        printString("C: i="); printInt(i); printString("\n");
    800045e8:	00005517          	auipc	a0,0x5
    800045ec:	ba050513          	addi	a0,a0,-1120 # 80009188 <CONSOLE_STATUS+0x178>
    800045f0:	00001097          	auipc	ra,0x1
    800045f4:	c80080e7          	jalr	-896(ra) # 80005270 <_Z11printStringPKc>
    800045f8:	00000613          	li	a2,0
    800045fc:	00a00593          	li	a1,10
    80004600:	00048513          	mv	a0,s1
    80004604:	00001097          	auipc	ra,0x1
    80004608:	e1c080e7          	jalr	-484(ra) # 80005420 <_Z8printIntiii>
    8000460c:	00005517          	auipc	a0,0x5
    80004610:	a9c50513          	addi	a0,a0,-1380 # 800090a8 <CONSOLE_STATUS+0x98>
    80004614:	00001097          	auipc	ra,0x1
    80004618:	c5c080e7          	jalr	-932(ra) # 80005270 <_Z11printStringPKc>
    for (; i < 3; i++) {
    8000461c:	0014849b          	addiw	s1,s1,1
    80004620:	0ff4f493          	andi	s1,s1,255
    80004624:	00200793          	li	a5,2
    80004628:	fc97f0e3          	bgeu	a5,s1,800045e8 <_ZL11workerBodyCPv+0x20>
    printString("C: dispatch\n");
    8000462c:	00005517          	auipc	a0,0x5
    80004630:	b6450513          	addi	a0,a0,-1180 # 80009190 <CONSOLE_STATUS+0x180>
    80004634:	00001097          	auipc	ra,0x1
    80004638:	c3c080e7          	jalr	-964(ra) # 80005270 <_Z11printStringPKc>
    __asm__ ("li t1, 7");
    8000463c:	00700313          	li	t1,7
    thread_dispatch();
    80004640:	ffffd097          	auipc	ra,0xffffd
    80004644:	d8c080e7          	jalr	-628(ra) # 800013cc <_Z15thread_dispatchv>
    __asm__ ("mv %[t1], t1" : [t1] "=r"(t1));
    80004648:	00030913          	mv	s2,t1
    printString("C: t1="); printInt(t1); printString("\n");
    8000464c:	00005517          	auipc	a0,0x5
    80004650:	b5450513          	addi	a0,a0,-1196 # 800091a0 <CONSOLE_STATUS+0x190>
    80004654:	00001097          	auipc	ra,0x1
    80004658:	c1c080e7          	jalr	-996(ra) # 80005270 <_Z11printStringPKc>
    8000465c:	00000613          	li	a2,0
    80004660:	00a00593          	li	a1,10
    80004664:	0009051b          	sext.w	a0,s2
    80004668:	00001097          	auipc	ra,0x1
    8000466c:	db8080e7          	jalr	-584(ra) # 80005420 <_Z8printIntiii>
    80004670:	00005517          	auipc	a0,0x5
    80004674:	a3850513          	addi	a0,a0,-1480 # 800090a8 <CONSOLE_STATUS+0x98>
    80004678:	00001097          	auipc	ra,0x1
    8000467c:	bf8080e7          	jalr	-1032(ra) # 80005270 <_Z11printStringPKc>
    uint64 result = fibonacci(12);
    80004680:	00c00513          	li	a0,12
    80004684:	00000097          	auipc	ra,0x0
    80004688:	d88080e7          	jalr	-632(ra) # 8000440c <_ZL9fibonaccim>
    8000468c:	00050913          	mv	s2,a0
    printString("C: fibonaci="); printInt(result); printString("\n");
    80004690:	00005517          	auipc	a0,0x5
    80004694:	b1850513          	addi	a0,a0,-1256 # 800091a8 <CONSOLE_STATUS+0x198>
    80004698:	00001097          	auipc	ra,0x1
    8000469c:	bd8080e7          	jalr	-1064(ra) # 80005270 <_Z11printStringPKc>
    800046a0:	00000613          	li	a2,0
    800046a4:	00a00593          	li	a1,10
    800046a8:	0009051b          	sext.w	a0,s2
    800046ac:	00001097          	auipc	ra,0x1
    800046b0:	d74080e7          	jalr	-652(ra) # 80005420 <_Z8printIntiii>
    800046b4:	00005517          	auipc	a0,0x5
    800046b8:	9f450513          	addi	a0,a0,-1548 # 800090a8 <CONSOLE_STATUS+0x98>
    800046bc:	00001097          	auipc	ra,0x1
    800046c0:	bb4080e7          	jalr	-1100(ra) # 80005270 <_Z11printStringPKc>
    800046c4:	0400006f          	j	80004704 <_ZL11workerBodyCPv+0x13c>
        printString("C: i="); printInt(i); printString("\n");
    800046c8:	00005517          	auipc	a0,0x5
    800046cc:	ac050513          	addi	a0,a0,-1344 # 80009188 <CONSOLE_STATUS+0x178>
    800046d0:	00001097          	auipc	ra,0x1
    800046d4:	ba0080e7          	jalr	-1120(ra) # 80005270 <_Z11printStringPKc>
    800046d8:	00000613          	li	a2,0
    800046dc:	00a00593          	li	a1,10
    800046e0:	00048513          	mv	a0,s1
    800046e4:	00001097          	auipc	ra,0x1
    800046e8:	d3c080e7          	jalr	-708(ra) # 80005420 <_Z8printIntiii>
    800046ec:	00005517          	auipc	a0,0x5
    800046f0:	9bc50513          	addi	a0,a0,-1604 # 800090a8 <CONSOLE_STATUS+0x98>
    800046f4:	00001097          	auipc	ra,0x1
    800046f8:	b7c080e7          	jalr	-1156(ra) # 80005270 <_Z11printStringPKc>
    for (; i < 6; i++) {
    800046fc:	0014849b          	addiw	s1,s1,1
    80004700:	0ff4f493          	andi	s1,s1,255
    80004704:	00500793          	li	a5,5
    80004708:	fc97f0e3          	bgeu	a5,s1,800046c8 <_ZL11workerBodyCPv+0x100>
    printString("A finished!\n");
    8000470c:	00005517          	auipc	a0,0x5
    80004710:	a5450513          	addi	a0,a0,-1452 # 80009160 <CONSOLE_STATUS+0x150>
    80004714:	00001097          	auipc	ra,0x1
    80004718:	b5c080e7          	jalr	-1188(ra) # 80005270 <_Z11printStringPKc>
    finishedC = true;
    8000471c:	00100793          	li	a5,1
    80004720:	00007717          	auipc	a4,0x7
    80004724:	1af704a3          	sb	a5,425(a4) # 8000b8c9 <_ZL9finishedC>
    thread_dispatch();
    80004728:	ffffd097          	auipc	ra,0xffffd
    8000472c:	ca4080e7          	jalr	-860(ra) # 800013cc <_Z15thread_dispatchv>
}
    80004730:	01813083          	ld	ra,24(sp)
    80004734:	01013403          	ld	s0,16(sp)
    80004738:	00813483          	ld	s1,8(sp)
    8000473c:	00013903          	ld	s2,0(sp)
    80004740:	02010113          	addi	sp,sp,32
    80004744:	00008067          	ret

0000000080004748 <_ZL11workerBodyBPv>:
static void workerBodyB(void* arg) {
    80004748:	fe010113          	addi	sp,sp,-32
    8000474c:	00113c23          	sd	ra,24(sp)
    80004750:	00813823          	sd	s0,16(sp)
    80004754:	00913423          	sd	s1,8(sp)
    80004758:	01213023          	sd	s2,0(sp)
    8000475c:	02010413          	addi	s0,sp,32
    for (uint64 i = 0; i < 16; i++) {
    80004760:	00000913          	li	s2,0
    80004764:	0380006f          	j	8000479c <_ZL11workerBodyBPv+0x54>
            thread_dispatch();
    80004768:	ffffd097          	auipc	ra,0xffffd
    8000476c:	c64080e7          	jalr	-924(ra) # 800013cc <_Z15thread_dispatchv>
        for (uint64 j = 0; j < 10000; j++) {
    80004770:	00148493          	addi	s1,s1,1
    80004774:	000027b7          	lui	a5,0x2
    80004778:	70f78793          	addi	a5,a5,1807 # 270f <_entry-0x7fffd8f1>
    8000477c:	0097ee63          	bltu	a5,s1,80004798 <_ZL11workerBodyBPv+0x50>
            for (uint64 k = 0; k < 30000; k++) { /* busy wait */ }
    80004780:	00000713          	li	a4,0
    80004784:	000077b7          	lui	a5,0x7
    80004788:	52f78793          	addi	a5,a5,1327 # 752f <_entry-0x7fff8ad1>
    8000478c:	fce7eee3          	bltu	a5,a4,80004768 <_ZL11workerBodyBPv+0x20>
    80004790:	00170713          	addi	a4,a4,1
    80004794:	ff1ff06f          	j	80004784 <_ZL11workerBodyBPv+0x3c>
    for (uint64 i = 0; i < 16; i++) {
    80004798:	00190913          	addi	s2,s2,1
    8000479c:	00f00793          	li	a5,15
    800047a0:	0527e063          	bltu	a5,s2,800047e0 <_ZL11workerBodyBPv+0x98>
        printString("B: i="); printInt(i); printString("\n");
    800047a4:	00005517          	auipc	a0,0x5
    800047a8:	9cc50513          	addi	a0,a0,-1588 # 80009170 <CONSOLE_STATUS+0x160>
    800047ac:	00001097          	auipc	ra,0x1
    800047b0:	ac4080e7          	jalr	-1340(ra) # 80005270 <_Z11printStringPKc>
    800047b4:	00000613          	li	a2,0
    800047b8:	00a00593          	li	a1,10
    800047bc:	0009051b          	sext.w	a0,s2
    800047c0:	00001097          	auipc	ra,0x1
    800047c4:	c60080e7          	jalr	-928(ra) # 80005420 <_Z8printIntiii>
    800047c8:	00005517          	auipc	a0,0x5
    800047cc:	8e050513          	addi	a0,a0,-1824 # 800090a8 <CONSOLE_STATUS+0x98>
    800047d0:	00001097          	auipc	ra,0x1
    800047d4:	aa0080e7          	jalr	-1376(ra) # 80005270 <_Z11printStringPKc>
        for (uint64 j = 0; j < 10000; j++) {
    800047d8:	00000493          	li	s1,0
    800047dc:	f99ff06f          	j	80004774 <_ZL11workerBodyBPv+0x2c>
    printString("B finished!\n");
    800047e0:	00005517          	auipc	a0,0x5
    800047e4:	99850513          	addi	a0,a0,-1640 # 80009178 <CONSOLE_STATUS+0x168>
    800047e8:	00001097          	auipc	ra,0x1
    800047ec:	a88080e7          	jalr	-1400(ra) # 80005270 <_Z11printStringPKc>
    finishedB = true;
    800047f0:	00100793          	li	a5,1
    800047f4:	00007717          	auipc	a4,0x7
    800047f8:	0cf70b23          	sb	a5,214(a4) # 8000b8ca <_ZL9finishedB>
    thread_dispatch();
    800047fc:	ffffd097          	auipc	ra,0xffffd
    80004800:	bd0080e7          	jalr	-1072(ra) # 800013cc <_Z15thread_dispatchv>
}
    80004804:	01813083          	ld	ra,24(sp)
    80004808:	01013403          	ld	s0,16(sp)
    8000480c:	00813483          	ld	s1,8(sp)
    80004810:	00013903          	ld	s2,0(sp)
    80004814:	02010113          	addi	sp,sp,32
    80004818:	00008067          	ret

000000008000481c <_ZL11workerBodyAPv>:
static void workerBodyA(void* arg) {
    8000481c:	fe010113          	addi	sp,sp,-32
    80004820:	00113c23          	sd	ra,24(sp)
    80004824:	00813823          	sd	s0,16(sp)
    80004828:	00913423          	sd	s1,8(sp)
    8000482c:	01213023          	sd	s2,0(sp)
    80004830:	02010413          	addi	s0,sp,32
    for (uint64 i = 0; i < 10; i++) {
    80004834:	00000913          	li	s2,0
    80004838:	0380006f          	j	80004870 <_ZL11workerBodyAPv+0x54>
            thread_dispatch();
    8000483c:	ffffd097          	auipc	ra,0xffffd
    80004840:	b90080e7          	jalr	-1136(ra) # 800013cc <_Z15thread_dispatchv>
        for (uint64 j = 0; j < 10000; j++) {
    80004844:	00148493          	addi	s1,s1,1
    80004848:	000027b7          	lui	a5,0x2
    8000484c:	70f78793          	addi	a5,a5,1807 # 270f <_entry-0x7fffd8f1>
    80004850:	0097ee63          	bltu	a5,s1,8000486c <_ZL11workerBodyAPv+0x50>
            for (uint64 k = 0; k < 30000; k++) { /* busy wait */ }
    80004854:	00000713          	li	a4,0
    80004858:	000077b7          	lui	a5,0x7
    8000485c:	52f78793          	addi	a5,a5,1327 # 752f <_entry-0x7fff8ad1>
    80004860:	fce7eee3          	bltu	a5,a4,8000483c <_ZL11workerBodyAPv+0x20>
    80004864:	00170713          	addi	a4,a4,1
    80004868:	ff1ff06f          	j	80004858 <_ZL11workerBodyAPv+0x3c>
    for (uint64 i = 0; i < 10; i++) {
    8000486c:	00190913          	addi	s2,s2,1
    80004870:	00900793          	li	a5,9
    80004874:	0527e063          	bltu	a5,s2,800048b4 <_ZL11workerBodyAPv+0x98>
        printString("A: i="); printInt(i); printString("\n");
    80004878:	00005517          	auipc	a0,0x5
    8000487c:	8e050513          	addi	a0,a0,-1824 # 80009158 <CONSOLE_STATUS+0x148>
    80004880:	00001097          	auipc	ra,0x1
    80004884:	9f0080e7          	jalr	-1552(ra) # 80005270 <_Z11printStringPKc>
    80004888:	00000613          	li	a2,0
    8000488c:	00a00593          	li	a1,10
    80004890:	0009051b          	sext.w	a0,s2
    80004894:	00001097          	auipc	ra,0x1
    80004898:	b8c080e7          	jalr	-1140(ra) # 80005420 <_Z8printIntiii>
    8000489c:	00005517          	auipc	a0,0x5
    800048a0:	80c50513          	addi	a0,a0,-2036 # 800090a8 <CONSOLE_STATUS+0x98>
    800048a4:	00001097          	auipc	ra,0x1
    800048a8:	9cc080e7          	jalr	-1588(ra) # 80005270 <_Z11printStringPKc>
        for (uint64 j = 0; j < 10000; j++) {
    800048ac:	00000493          	li	s1,0
    800048b0:	f99ff06f          	j	80004848 <_ZL11workerBodyAPv+0x2c>
    printString("A finished!\n");
    800048b4:	00005517          	auipc	a0,0x5
    800048b8:	8ac50513          	addi	a0,a0,-1876 # 80009160 <CONSOLE_STATUS+0x150>
    800048bc:	00001097          	auipc	ra,0x1
    800048c0:	9b4080e7          	jalr	-1612(ra) # 80005270 <_Z11printStringPKc>
    finishedA = true;
    800048c4:	00100793          	li	a5,1
    800048c8:	00007717          	auipc	a4,0x7
    800048cc:	00f701a3          	sb	a5,3(a4) # 8000b8cb <_ZL9finishedA>
}
    800048d0:	01813083          	ld	ra,24(sp)
    800048d4:	01013403          	ld	s0,16(sp)
    800048d8:	00813483          	ld	s1,8(sp)
    800048dc:	00013903          	ld	s2,0(sp)
    800048e0:	02010113          	addi	sp,sp,32
    800048e4:	00008067          	ret

00000000800048e8 <_Z18Threads_C_API_testv>:


void Threads_C_API_test() {
    800048e8:	fd010113          	addi	sp,sp,-48
    800048ec:	02113423          	sd	ra,40(sp)
    800048f0:	02813023          	sd	s0,32(sp)
    800048f4:	03010413          	addi	s0,sp,48
    thread_t threads[4];
    thread_create(&threads[0], workerBodyA, nullptr);
    800048f8:	00000613          	li	a2,0
    800048fc:	00000597          	auipc	a1,0x0
    80004900:	f2058593          	addi	a1,a1,-224 # 8000481c <_ZL11workerBodyAPv>
    80004904:	fd040513          	addi	a0,s0,-48
    80004908:	ffffd097          	auipc	ra,0xffffd
    8000490c:	9f0080e7          	jalr	-1552(ra) # 800012f8 <_Z13thread_createPP3TCBPFvPvES2_>
    printString("ThreadA created\n");
    80004910:	00005517          	auipc	a0,0x5
    80004914:	8e050513          	addi	a0,a0,-1824 # 800091f0 <CONSOLE_STATUS+0x1e0>
    80004918:	00001097          	auipc	ra,0x1
    8000491c:	958080e7          	jalr	-1704(ra) # 80005270 <_Z11printStringPKc>

    thread_create(&threads[1], workerBodyB, nullptr);
    80004920:	00000613          	li	a2,0
    80004924:	00000597          	auipc	a1,0x0
    80004928:	e2458593          	addi	a1,a1,-476 # 80004748 <_ZL11workerBodyBPv>
    8000492c:	fd840513          	addi	a0,s0,-40
    80004930:	ffffd097          	auipc	ra,0xffffd
    80004934:	9c8080e7          	jalr	-1592(ra) # 800012f8 <_Z13thread_createPP3TCBPFvPvES2_>
    printString("ThreadB created\n");
    80004938:	00005517          	auipc	a0,0x5
    8000493c:	8d050513          	addi	a0,a0,-1840 # 80009208 <CONSOLE_STATUS+0x1f8>
    80004940:	00001097          	auipc	ra,0x1
    80004944:	930080e7          	jalr	-1744(ra) # 80005270 <_Z11printStringPKc>

    thread_create(&threads[2], workerBodyC, nullptr);
    80004948:	00000613          	li	a2,0
    8000494c:	00000597          	auipc	a1,0x0
    80004950:	c7c58593          	addi	a1,a1,-900 # 800045c8 <_ZL11workerBodyCPv>
    80004954:	fe040513          	addi	a0,s0,-32
    80004958:	ffffd097          	auipc	ra,0xffffd
    8000495c:	9a0080e7          	jalr	-1632(ra) # 800012f8 <_Z13thread_createPP3TCBPFvPvES2_>
    printString("ThreadC created\n");
    80004960:	00005517          	auipc	a0,0x5
    80004964:	8c050513          	addi	a0,a0,-1856 # 80009220 <CONSOLE_STATUS+0x210>
    80004968:	00001097          	auipc	ra,0x1
    8000496c:	908080e7          	jalr	-1784(ra) # 80005270 <_Z11printStringPKc>

    thread_create(&threads[3], workerBodyD, nullptr);
    80004970:	00000613          	li	a2,0
    80004974:	00000597          	auipc	a1,0x0
    80004978:	b0c58593          	addi	a1,a1,-1268 # 80004480 <_ZL11workerBodyDPv>
    8000497c:	fe840513          	addi	a0,s0,-24
    80004980:	ffffd097          	auipc	ra,0xffffd
    80004984:	978080e7          	jalr	-1672(ra) # 800012f8 <_Z13thread_createPP3TCBPFvPvES2_>
    printString("ThreadD created\n");
    80004988:	00005517          	auipc	a0,0x5
    8000498c:	8b050513          	addi	a0,a0,-1872 # 80009238 <CONSOLE_STATUS+0x228>
    80004990:	00001097          	auipc	ra,0x1
    80004994:	8e0080e7          	jalr	-1824(ra) # 80005270 <_Z11printStringPKc>
    80004998:	00c0006f          	j	800049a4 <_Z18Threads_C_API_testv+0xbc>

    while (!(finishedA && finishedB && finishedC && finishedD)) {
        thread_dispatch();
    8000499c:	ffffd097          	auipc	ra,0xffffd
    800049a0:	a30080e7          	jalr	-1488(ra) # 800013cc <_Z15thread_dispatchv>
    while (!(finishedA && finishedB && finishedC && finishedD)) {
    800049a4:	00007797          	auipc	a5,0x7
    800049a8:	f277c783          	lbu	a5,-217(a5) # 8000b8cb <_ZL9finishedA>
    800049ac:	fe0788e3          	beqz	a5,8000499c <_Z18Threads_C_API_testv+0xb4>
    800049b0:	00007797          	auipc	a5,0x7
    800049b4:	f1a7c783          	lbu	a5,-230(a5) # 8000b8ca <_ZL9finishedB>
    800049b8:	fe0782e3          	beqz	a5,8000499c <_Z18Threads_C_API_testv+0xb4>
    800049bc:	00007797          	auipc	a5,0x7
    800049c0:	f0d7c783          	lbu	a5,-243(a5) # 8000b8c9 <_ZL9finishedC>
    800049c4:	fc078ce3          	beqz	a5,8000499c <_Z18Threads_C_API_testv+0xb4>
    800049c8:	00007797          	auipc	a5,0x7
    800049cc:	f007c783          	lbu	a5,-256(a5) # 8000b8c8 <_ZL9finishedD>
    800049d0:	fc0786e3          	beqz	a5,8000499c <_Z18Threads_C_API_testv+0xb4>
    }

}
    800049d4:	02813083          	ld	ra,40(sp)
    800049d8:	02013403          	ld	s0,32(sp)
    800049dc:	03010113          	addi	sp,sp,48
    800049e0:	00008067          	ret

00000000800049e4 <_ZN16ProducerKeyboard16producerKeyboardEPv>:
    void run() override {
        producerKeyboard(td);
    }
};

void ProducerKeyboard::producerKeyboard(void *arg) {
    800049e4:	fd010113          	addi	sp,sp,-48
    800049e8:	02113423          	sd	ra,40(sp)
    800049ec:	02813023          	sd	s0,32(sp)
    800049f0:	00913c23          	sd	s1,24(sp)
    800049f4:	01213823          	sd	s2,16(sp)
    800049f8:	01313423          	sd	s3,8(sp)
    800049fc:	03010413          	addi	s0,sp,48
    80004a00:	00050993          	mv	s3,a0
    80004a04:	00058493          	mv	s1,a1
    struct thread_data *data = (struct thread_data *) arg;

    int key;
    int i = 0;
    80004a08:	00000913          	li	s2,0
    80004a0c:	00c0006f          	j	80004a18 <_ZN16ProducerKeyboard16producerKeyboardEPv+0x34>
    while ((key = getc()) != 0x1b) {
        data->buffer->put(key);
        i++;

        if (i % (10 * data->id) == 0) {
            Thread::dispatch();
    80004a10:	ffffd097          	auipc	ra,0xffffd
    80004a14:	7a4080e7          	jalr	1956(ra) # 800021b4 <_ZN6Thread8dispatchEv>
    while ((key = getc()) != 0x1b) {
    80004a18:	ffffd097          	auipc	ra,0xffffd
    80004a1c:	ab4080e7          	jalr	-1356(ra) # 800014cc <_Z4getcv>
    80004a20:	0005059b          	sext.w	a1,a0
    80004a24:	01b00793          	li	a5,27
    80004a28:	02f58a63          	beq	a1,a5,80004a5c <_ZN16ProducerKeyboard16producerKeyboardEPv+0x78>
        data->buffer->put(key);
    80004a2c:	0084b503          	ld	a0,8(s1)
    80004a30:	00001097          	auipc	ra,0x1
    80004a34:	c64080e7          	jalr	-924(ra) # 80005694 <_ZN9BufferCPP3putEi>
        i++;
    80004a38:	0019071b          	addiw	a4,s2,1
    80004a3c:	0007091b          	sext.w	s2,a4
        if (i % (10 * data->id) == 0) {
    80004a40:	0004a683          	lw	a3,0(s1)
    80004a44:	0026979b          	slliw	a5,a3,0x2
    80004a48:	00d787bb          	addw	a5,a5,a3
    80004a4c:	0017979b          	slliw	a5,a5,0x1
    80004a50:	02f767bb          	remw	a5,a4,a5
    80004a54:	fc0792e3          	bnez	a5,80004a18 <_ZN16ProducerKeyboard16producerKeyboardEPv+0x34>
    80004a58:	fb9ff06f          	j	80004a10 <_ZN16ProducerKeyboard16producerKeyboardEPv+0x2c>
        }
    }

    threadEnd = 1;
    80004a5c:	00100793          	li	a5,1
    80004a60:	00007717          	auipc	a4,0x7
    80004a64:	e6f72823          	sw	a5,-400(a4) # 8000b8d0 <_ZL9threadEnd>
    td->buffer->put('!');
    80004a68:	0209b783          	ld	a5,32(s3)
    80004a6c:	02100593          	li	a1,33
    80004a70:	0087b503          	ld	a0,8(a5)
    80004a74:	00001097          	auipc	ra,0x1
    80004a78:	c20080e7          	jalr	-992(ra) # 80005694 <_ZN9BufferCPP3putEi>

    data->wait->signal();
    80004a7c:	0104b503          	ld	a0,16(s1)
    80004a80:	ffffe097          	auipc	ra,0xffffe
    80004a84:	824080e7          	jalr	-2012(ra) # 800022a4 <_ZN9Semaphore6signalEv>
}
    80004a88:	02813083          	ld	ra,40(sp)
    80004a8c:	02013403          	ld	s0,32(sp)
    80004a90:	01813483          	ld	s1,24(sp)
    80004a94:	01013903          	ld	s2,16(sp)
    80004a98:	00813983          	ld	s3,8(sp)
    80004a9c:	03010113          	addi	sp,sp,48
    80004aa0:	00008067          	ret

0000000080004aa4 <_ZN12ProducerSync8producerEPv>:
    void run() override {
        producer(td);
    }
};

void ProducerSync::producer(void *arg) {
    80004aa4:	fe010113          	addi	sp,sp,-32
    80004aa8:	00113c23          	sd	ra,24(sp)
    80004aac:	00813823          	sd	s0,16(sp)
    80004ab0:	00913423          	sd	s1,8(sp)
    80004ab4:	01213023          	sd	s2,0(sp)
    80004ab8:	02010413          	addi	s0,sp,32
    80004abc:	00058493          	mv	s1,a1
    struct thread_data *data = (struct thread_data *) arg;

    int i = 0;
    80004ac0:	00000913          	li	s2,0
    80004ac4:	00c0006f          	j	80004ad0 <_ZN12ProducerSync8producerEPv+0x2c>
    while (!threadEnd) {
        data->buffer->put(data->id + '0');
        i++;

        if (i % (10 * data->id) == 0) {
            Thread::dispatch();
    80004ac8:	ffffd097          	auipc	ra,0xffffd
    80004acc:	6ec080e7          	jalr	1772(ra) # 800021b4 <_ZN6Thread8dispatchEv>
    while (!threadEnd) {
    80004ad0:	00007797          	auipc	a5,0x7
    80004ad4:	e007a783          	lw	a5,-512(a5) # 8000b8d0 <_ZL9threadEnd>
    80004ad8:	02079e63          	bnez	a5,80004b14 <_ZN12ProducerSync8producerEPv+0x70>
        data->buffer->put(data->id + '0');
    80004adc:	0004a583          	lw	a1,0(s1)
    80004ae0:	0305859b          	addiw	a1,a1,48
    80004ae4:	0084b503          	ld	a0,8(s1)
    80004ae8:	00001097          	auipc	ra,0x1
    80004aec:	bac080e7          	jalr	-1108(ra) # 80005694 <_ZN9BufferCPP3putEi>
        i++;
    80004af0:	0019071b          	addiw	a4,s2,1
    80004af4:	0007091b          	sext.w	s2,a4
        if (i % (10 * data->id) == 0) {
    80004af8:	0004a683          	lw	a3,0(s1)
    80004afc:	0026979b          	slliw	a5,a3,0x2
    80004b00:	00d787bb          	addw	a5,a5,a3
    80004b04:	0017979b          	slliw	a5,a5,0x1
    80004b08:	02f767bb          	remw	a5,a4,a5
    80004b0c:	fc0792e3          	bnez	a5,80004ad0 <_ZN12ProducerSync8producerEPv+0x2c>
    80004b10:	fb9ff06f          	j	80004ac8 <_ZN12ProducerSync8producerEPv+0x24>
        }
    }

    data->wait->signal();
    80004b14:	0104b503          	ld	a0,16(s1)
    80004b18:	ffffd097          	auipc	ra,0xffffd
    80004b1c:	78c080e7          	jalr	1932(ra) # 800022a4 <_ZN9Semaphore6signalEv>
}
    80004b20:	01813083          	ld	ra,24(sp)
    80004b24:	01013403          	ld	s0,16(sp)
    80004b28:	00813483          	ld	s1,8(sp)
    80004b2c:	00013903          	ld	s2,0(sp)
    80004b30:	02010113          	addi	sp,sp,32
    80004b34:	00008067          	ret

0000000080004b38 <_ZN12ConsumerSync8consumerEPv>:
    void run() override {
        consumer(td);
    }
};

void ConsumerSync::consumer(void *arg) {
    80004b38:	fd010113          	addi	sp,sp,-48
    80004b3c:	02113423          	sd	ra,40(sp)
    80004b40:	02813023          	sd	s0,32(sp)
    80004b44:	00913c23          	sd	s1,24(sp)
    80004b48:	01213823          	sd	s2,16(sp)
    80004b4c:	01313423          	sd	s3,8(sp)
    80004b50:	01413023          	sd	s4,0(sp)
    80004b54:	03010413          	addi	s0,sp,48
    80004b58:	00050993          	mv	s3,a0
    80004b5c:	00058913          	mv	s2,a1
    struct thread_data *data = (struct thread_data *) arg;

    int i = 0;
    80004b60:	00000a13          	li	s4,0
    80004b64:	01c0006f          	j	80004b80 <_ZN12ConsumerSync8consumerEPv+0x48>
        i++;

        putc(key);

        if (i % (5 * data->id) == 0) {
            Thread::dispatch();
    80004b68:	ffffd097          	auipc	ra,0xffffd
    80004b6c:	64c080e7          	jalr	1612(ra) # 800021b4 <_ZN6Thread8dispatchEv>
    80004b70:	0500006f          	j	80004bc0 <_ZN12ConsumerSync8consumerEPv+0x88>
        }

        if (i % 80 == 0) {
            putc('\n');
    80004b74:	00a00513          	li	a0,10
    80004b78:	ffffd097          	auipc	ra,0xffffd
    80004b7c:	9a0080e7          	jalr	-1632(ra) # 80001518 <_Z4putcc>
    while (!threadEnd) {
    80004b80:	00007797          	auipc	a5,0x7
    80004b84:	d507a783          	lw	a5,-688(a5) # 8000b8d0 <_ZL9threadEnd>
    80004b88:	06079263          	bnez	a5,80004bec <_ZN12ConsumerSync8consumerEPv+0xb4>
        int key = data->buffer->get();
    80004b8c:	00893503          	ld	a0,8(s2)
    80004b90:	00001097          	auipc	ra,0x1
    80004b94:	b94080e7          	jalr	-1132(ra) # 80005724 <_ZN9BufferCPP3getEv>
        i++;
    80004b98:	001a049b          	addiw	s1,s4,1
    80004b9c:	00048a1b          	sext.w	s4,s1
        putc(key);
    80004ba0:	0ff57513          	andi	a0,a0,255
    80004ba4:	ffffd097          	auipc	ra,0xffffd
    80004ba8:	974080e7          	jalr	-1676(ra) # 80001518 <_Z4putcc>
        if (i % (5 * data->id) == 0) {
    80004bac:	00092703          	lw	a4,0(s2)
    80004bb0:	0027179b          	slliw	a5,a4,0x2
    80004bb4:	00e787bb          	addw	a5,a5,a4
    80004bb8:	02f4e7bb          	remw	a5,s1,a5
    80004bbc:	fa0786e3          	beqz	a5,80004b68 <_ZN12ConsumerSync8consumerEPv+0x30>
        if (i % 80 == 0) {
    80004bc0:	05000793          	li	a5,80
    80004bc4:	02f4e4bb          	remw	s1,s1,a5
    80004bc8:	fa049ce3          	bnez	s1,80004b80 <_ZN12ConsumerSync8consumerEPv+0x48>
    80004bcc:	fa9ff06f          	j	80004b74 <_ZN12ConsumerSync8consumerEPv+0x3c>
        }
    }


    while (td->buffer->getCnt() > 0) {
        int key = td->buffer->get();
    80004bd0:	0209b783          	ld	a5,32(s3)
    80004bd4:	0087b503          	ld	a0,8(a5)
    80004bd8:	00001097          	auipc	ra,0x1
    80004bdc:	b4c080e7          	jalr	-1204(ra) # 80005724 <_ZN9BufferCPP3getEv>
        Console::putc(key);
    80004be0:	0ff57513          	andi	a0,a0,255
    80004be4:	ffffd097          	auipc	ra,0xffffd
    80004be8:	7b0080e7          	jalr	1968(ra) # 80002394 <_ZN7Console4putcEc>
    while (td->buffer->getCnt() > 0) {
    80004bec:	0209b783          	ld	a5,32(s3)
    80004bf0:	0087b503          	ld	a0,8(a5)
    80004bf4:	00001097          	auipc	ra,0x1
    80004bf8:	bbc080e7          	jalr	-1092(ra) # 800057b0 <_ZN9BufferCPP6getCntEv>
    80004bfc:	fca04ae3          	bgtz	a0,80004bd0 <_ZN12ConsumerSync8consumerEPv+0x98>
    }

    data->wait->signal();
    80004c00:	01093503          	ld	a0,16(s2)
    80004c04:	ffffd097          	auipc	ra,0xffffd
    80004c08:	6a0080e7          	jalr	1696(ra) # 800022a4 <_ZN9Semaphore6signalEv>
}
    80004c0c:	02813083          	ld	ra,40(sp)
    80004c10:	02013403          	ld	s0,32(sp)
    80004c14:	01813483          	ld	s1,24(sp)
    80004c18:	01013903          	ld	s2,16(sp)
    80004c1c:	00813983          	ld	s3,8(sp)
    80004c20:	00013a03          	ld	s4,0(sp)
    80004c24:	03010113          	addi	sp,sp,48
    80004c28:	00008067          	ret

0000000080004c2c <_Z29producerConsumer_CPP_Sync_APIv>:

void producerConsumer_CPP_Sync_API() {
    80004c2c:	f8010113          	addi	sp,sp,-128
    80004c30:	06113c23          	sd	ra,120(sp)
    80004c34:	06813823          	sd	s0,112(sp)
    80004c38:	06913423          	sd	s1,104(sp)
    80004c3c:	07213023          	sd	s2,96(sp)
    80004c40:	05313c23          	sd	s3,88(sp)
    80004c44:	05413823          	sd	s4,80(sp)
